###############################################################################
#                                                                             #
# IAR C/C++ Compiler V8.10.3.10338/W32 for 8051         02/Jul/2023  22:07:55 #
# Copyright 2004-2011 IAR Systems AB.                                         #
#                                                                             #
#    Core               =  plain                                              #
#    Code model         =  banked                                             #
#    Data model         =  large                                              #
#    Calling convention =  xdata reentrant                                    #
#    Constant location  =  data_rom                                           #
#    Dptr setup         =  1,16                                               #
#    Source file        =  C:\Users\蕾雅\Desktop\stm32\ZStack-2.5.1a\Projects #
#                          \zstack\Samples\SampleApp\Source\SampleApp.c       #
#    Command line       =  -f C:\Users\蕾雅\Desktop\stm32\ZStack-2.5.1a\Proje #
#                          cts\zstack\Samples\SampleApp\CC2530DB\..\..\..\Too #
#                          ls\CC2530DB\f8wCoord.cfg (-DCPU32MHZ               #
#                          -DROOT=__near_func -DMAC_CFG_APP_PENDING_QUEUE=TRU #
#                          E -DMAC_CFG_TX_DATA_MAX=5 -DMAC_CFG_TX_MAX=8       #
#                          -DMAC_CFG_RX_MAX=5 -DZDO_COORDINATOR -DRTR_NWK)    #
#                          -f C:\Users\蕾雅\Desktop\stm32\ZStack-2.5.1a\Proje #
#                          cts\zstack\Samples\SampleApp\CC2530DB\..\..\..\Too #
#                          ls\CC2530DB\f8wConfig.cfg (-DZIGBEEPRO -DSECURE=0  #
#                          -DZG_SECURE_DYNAMIC=0 -DREFLECTOR                  #
#                          -DDEFAULT_CHANLIST=0x00000800                      #
#                          -DZDAPP_CONFIG_PAN_ID=0xFFF1                       #
#                          -DNWK_START_DELAY=100 -DEXTENDED_JOINING_RANDOM_MA #
#                          SK=0x007F -DBEACON_REQUEST_DELAY=100               #
#                          -DBEACON_REQ_DELAY_MASK=0x00FF                     #
#                          -DLINK_STATUS_JITTER_MASK=0x007F                   #
#                          -DROUTE_EXPIRY_TIME=30 -DAPSC_ACK_WAIT_DURATION_PO #
#                          LLED=3000 -DNWK_INDIRECT_MSG_TIMEOUT=7             #
#                          -DMAX_RREQ_ENTRIES=8 -DAPSC_MAX_FRAME_RETRIES=3    #
#                          -DNWK_MAX_DATA_RETRIES=2                           #
#                          -DMAX_POLL_FAILURE_RETRIES=2 -DMAX_BCAST=9         #
#                          -DAPS_MAX_GROUPS=16 -DMAX_RTG_ENTRIES=40           #
#                          -DNWK_MAX_BINDING_ENTRIES=4                        #
#                          -DMAX_BINDING_CLUSTER_IDS=4 "-DDEFAULT_KEY={0x01,  #
#                          0x03, 0x05, 0x07, 0x09, 0x0B, 0x0D, 0x0F, 0x00,    #
#                          0x02, 0x04, 0x06, 0x08, 0x0A, 0x0C, 0x0D}"         #
#                          -DMAC_MAX_FRAME_SIZE=116                           #
#                          -DZDNWKMGR_MIN_TRANSMISSIONS=20 "-DCONST=const     #
#                          __code" -DGENERIC=__generic                        #
#                          -DRFD_RCVC_ALWAYS_ON=FALSE -DPOLL_RATE=1000        #
#                          -DQUEUED_POLL_RATE=100 -DRESPONSE_POLL_RATE=100)   #
#                          -DREJOIN_POLL_RATE=440 C:\Users\蕾雅\Desktop\stm32 #
#                          \ZStack-2.5.1a\Projects\zstack\Samples\SampleApp\S #
#                          ource\SampleApp.c -D ZTOOL_P1 -D xMT_TASK -D       #
#                          xMT_SYS_FUNC -D xMT_ZDO_FUNC -D                    #
#                          LCD_SUPPORTED=DEBUG -lC C:\Users\蕾雅\Desktop\stm3 #
#                          2\ZStack-2.5.1a\Projects\zstack\Samples\SampleApp\ #
#                          CC2530DB\CoordinatorEB\List\ -lA                   #
#                          C:\Users\蕾雅\Desktop\stm32\ZStack-2.5.1a\Projects #
#                          \zstack\Samples\SampleApp\CC2530DB\CoordinatorEB\L #
#                          ist\ --diag_suppress Pe001,Pa010 -o                #
#                          C:\Users\蕾雅\Desktop\stm32\ZStack-2.5.1a\Projects #
#                          \zstack\Samples\SampleApp\CC2530DB\CoordinatorEB\O #
#                          bj\ -e --no_code_motion --debug --core=plain       #
#                          --dptr=16,1 --data_model=large                     #
#                          --code_model=banked --calling_convention=xdata_ree #
#                          ntrant --place_constants=data_rom                  #
#                          --nr_virtual_regs 16 -I C:\Users\蕾雅\Desktop\stm3 #
#                          2\ZStack-2.5.1a\Projects\zstack\Samples\SampleApp\ #
#                          CC2530DB\ -I C:\Users\蕾雅\Desktop\stm32\ZStack-2. #
#                          5.1a\Projects\zstack\Samples\SampleApp\CC2530DB\.. #
#                          \Source\ -I C:\Users\蕾雅\Desktop\stm32\ZStack-2.5 #
#                          .1a\Projects\zstack\Samples\SampleApp\CC2530DB\..\ #
#                          ..\..\ZMain\TI2530DB\ -I                           #
#                          C:\Users\蕾雅\Desktop\stm32\ZStack-2.5.1a\Projects #
#                          \zstack\Samples\SampleApp\CC2530DB\..\..\..\..\..\ #
#                          Components\hal\include\ -I                         #
#                          C:\Users\蕾雅\Desktop\stm32\ZStack-2.5.1a\Projects #
#                          \zstack\Samples\SampleApp\CC2530DB\..\..\..\..\..\ #
#                          Components\hal\target\CC2530EB\ -I                 #
#                          C:\Users\蕾雅\Desktop\stm32\ZStack-2.5.1a\Projects #
#                          \zstack\Samples\SampleApp\CC2530DB\..\..\..\..\..\ #
#                          Components\mac\include\ -I                         #
#                          C:\Users\蕾雅\Desktop\stm32\ZStack-2.5.1a\Projects #
#                          \zstack\Samples\SampleApp\CC2530DB\..\..\..\..\..\ #
#                          Components\mac\high_level\ -I                      #
#                          C:\Users\蕾雅\Desktop\stm32\ZStack-2.5.1a\Projects #
#                          \zstack\Samples\SampleApp\CC2530DB\..\..\..\..\..\ #
#                          Components\mac\low_level\srf04\ -I                 #
#                          C:\Users\蕾雅\Desktop\stm32\ZStack-2.5.1a\Projects #
#                          \zstack\Samples\SampleApp\CC2530DB\..\..\..\..\..\ #
#                          Components\mac\low_level\srf04\single_chip\ -I     #
#                          C:\Users\蕾雅\Desktop\stm32\ZStack-2.5.1a\Projects #
#                          \zstack\Samples\SampleApp\CC2530DB\..\..\..\..\..\ #
#                          Components\mt\ -I C:\Users\蕾雅\Desktop\stm32\ZSta #
#                          ck-2.5.1a\Projects\zstack\Samples\SampleApp\CC2530 #
#                          DB\..\..\..\..\..\Components\osal\include\ -I      #
#                          C:\Users\蕾雅\Desktop\stm32\ZStack-2.5.1a\Projects #
#                          \zstack\Samples\SampleApp\CC2530DB\..\..\..\..\..\ #
#                          Components\services\saddr\ -I                      #
#                          C:\Users\蕾雅\Desktop\stm32\ZStack-2.5.1a\Projects #
#                          \zstack\Samples\SampleApp\CC2530DB\..\..\..\..\..\ #
#                          Components\services\sdata\ -I                      #
#                          C:\Users\蕾雅\Desktop\stm32\ZStack-2.5.1a\Projects #
#                          \zstack\Samples\SampleApp\CC2530DB\..\..\..\..\..\ #
#                          Components\stack\af\ -I C:\Users\蕾雅\Desktop\stm3 #
#                          2\ZStack-2.5.1a\Projects\zstack\Samples\SampleApp\ #
#                          CC2530DB\..\..\..\..\..\Components\stack\nwk\ -I   #
#                          C:\Users\蕾雅\Desktop\stm32\ZStack-2.5.1a\Projects #
#                          \zstack\Samples\SampleApp\CC2530DB\..\..\..\..\..\ #
#                          Components\stack\sapi\ -I                          #
#                          C:\Users\蕾雅\Desktop\stm32\ZStack-2.5.1a\Projects #
#                          \zstack\Samples\SampleApp\CC2530DB\..\..\..\..\..\ #
#                          Components\stack\sec\ -I                           #
#                          C:\Users\蕾雅\Desktop\stm32\ZStack-2.5.1a\Projects #
#                          \zstack\Samples\SampleApp\CC2530DB\..\..\..\..\..\ #
#                          Components\stack\sys\ -I                           #
#                          C:\Users\蕾雅\Desktop\stm32\ZStack-2.5.1a\Projects #
#                          \zstack\Samples\SampleApp\CC2530DB\..\..\..\..\..\ #
#                          Components\stack\zdo\ -I                           #
#                          C:\Users\蕾雅\Desktop\stm32\ZStack-2.5.1a\Projects #
#                          \zstack\Samples\SampleApp\CC2530DB\..\..\..\..\..\ #
#                          Components\zmac\ -I C:\Users\蕾雅\Desktop\stm32\ZS #
#                          tack-2.5.1a\Projects\zstack\Samples\SampleApp\CC25 #
#                          30DB\..\..\..\..\..\Components\zmac\f8w\ -Ohz      #
#    List file          =  C:\Users\蕾雅\Desktop\stm32\ZStack-2.5.1a\Projects #
#                          \zstack\Samples\SampleApp\CC2530DB\CoordinatorEB\L #
#                          ist\SampleApp.lst                                  #
#    Object file        =  C:\Users\蕾雅\Desktop\stm32\ZStack-2.5.1a\Projects #
#                          \zstack\Samples\SampleApp\CC2530DB\CoordinatorEB\O #
#                          bj\SampleApp.r51                                   #
#                                                                             #
#                                                                             #
###############################################################################

C:\Users\蕾雅\Desktop\stm32\ZStack-2.5.1a\Projects\zstack\Samples\SampleApp\Source\SampleApp.c
      1          /*********************************************************************
      2           * INCLUDES
      3           */
      4          
      5          #include <stdio.h>
      6          #include <string.h>
      7          #include "AF.h"
      8          #include "OnBoard.h"
      9          #include "OSAL_Tasks.h"
     10          #include "SampleApp.h"
     11          #include "ZDApp.h"
     12          #include "ZDObject.h"
     13          #include "ZDProfile.h"
     14          
     15          #include "hal_drivers.h"
     16          #include "hal_key.h"
     17          
     18          #if defined ( LCD_SUPPORTED )
     19            #include "hal_lcd.h"
     20          #endif
     21          
     22          #include "hal_led.h"
     23          #include "hal_uart.h"
     24          #include "dht11.h"
     25          #include "B_LUX_V30.h"
     26          #include "ADC.h"

  #define uint16 unsigned short
          ^
"C:\Users\蕾雅\Desktop\stm32\ZStack-2.5.1a\Projects\zstack\Samples\SampleApp\Source\ADC.h",9  Warning[Pe047]: 
          incompatible redefinition of macro "uint16" (declared at line 11 of
          "C:\Users\蕾雅\Desktop\stm32\ZStack-2.5.1a\Projects\zstack\Samples\Sa
          mpleApp\Source\B_LUX_V30.h")
     27          #include "cJSON.h"
     28          
     29          
     30          /*********************************************************************
     31           * MACROS
     32           */
     33          
     34          /*********************************************************************
     35           * CONSTANTS
     36           */
     37          
     38          #if !defined( SAMPLE_APP_PORT )
     39          #define SAMPLE_APP_PORT  0
     40          #endif
     41          
     42          #if !defined( SAMPLE_APP_BAUD )
     43            #define SAMPLE_APP_BAUD  HAL_UART_BR_115200
     44          #endif
     45          
     46          // When the Rx buf space is less than this threshold, invoke the Rx callback.
     47          #if !defined( SAMPLE_APP_THRESH )
     48          #define SAMPLE_APP_THRESH  64
     49          #endif
     50          
     51          #if !defined( SAMPLE_APP_RX_SZ )
     52          #define SAMPLE_APP_RX_SZ  128
     53          #endif
     54          
     55          #if !defined( SAMPLE_APP_TX_SZ )
     56          #define SAMPLE_APP_TX_SZ  128
     57          #endif
     58          
     59          // Millisecs of idle time after a byte is received before invoking Rx callback.
     60          #if !defined( SAMPLE_APP_IDLE )
     61          #define SAMPLE_APP_IDLE  6
     62          #endif
     63          
     64          // Loopback Rx bytes to Tx for throughput testing.
     65          #if !defined( SAMPLE_APP_LOOPBACK )
     66          #define SAMPLE_APP_LOOPBACK  FALSE
     67          #endif
     68          
     69          // This is the max byte count per OTA message.
     70          #if !defined( SAMPLE_APP_TX_MAX )
     71          #define SAMPLE_APP_TX_MAX  80
     72          #endif
     73          
     74          #define SAMPLE_APP_RSP_CNT  4
     75          
     76          // This list should be filled with Application specific Cluster IDs.

   \                                 In  segment XDATA_ROM_C, align 1
     77          const cId_t SampleApp_ClusterList[SAMPLE_MAX_CLUSTERS] =
   \                     SampleApp_ClusterList:
   \   000000   0100         DW 1
   \   000002   0200         DW 2
     78          {
     79            SAMPLEAPP_P2P_CLUSTERID,
     80            SAMPLEAPP_PERIODIC_CLUSTERID,
     81          };
     82          

   \                                 In  segment XDATA_ROM_C, align 1
     83          const SimpleDescriptionFormat_t SampleApp_SimpleDesc =
   \                     SampleApp_SimpleDesc:
   \   000000   0B           DB 11
   \   000001   050F         DW 3845
   \   000003   0100         DW 1
   \   000005   00           DB 0
   \   000006   02           DB 2
   \   000007   ....         DW SampleApp_ClusterList
   \   000009   02           DB 2
   \   00000A   ....         DW SampleApp_ClusterList
     84          {
     85            SAMPLEAPP_ENDPOINT,              //  int   Endpoint;
     86            SAMPLEAPP_PROFID,                //  uint16 AppProfId[2];
     87            SAMPLEAPP_DEVICEID,              //  uint16 AppDeviceId[2];
     88            SAMPLEAPP_DEVICE_VERSION,        //  int   AppDevVer:4;
     89            SAMPLEAPP_FLAGS,                 //  int   AppFlags:4;
     90            SAMPLE_MAX_CLUSTERS,          //  byte  AppNumInClusters;
     91            (cId_t *)SampleApp_ClusterList,  //  byte *pAppInClusterList;
     92            SAMPLE_MAX_CLUSTERS,          //  byte  AppNumOutClusters;
     93            (cId_t *)SampleApp_ClusterList   //  byte *pAppOutClusterList;
     94          };
     95          

   \                                 In  segment XDATA_I, align 1, keep-with-next
     96          endPointDesc_t SampleApp_epDesc =
   \                     SampleApp_epDesc:
   \   000000                DS 6
   \   000006                REQUIRE `?<Initializer for SampleApp_epDesc>`
   \   000006                REQUIRE __INIT_XDATA_I
     97          {
     98            SAMPLEAPP_ENDPOINT,
     99           &SampleApp_TaskID,
    100            (SimpleDescriptionFormat_t *)&SampleApp_SimpleDesc,
    101            noLatencyReqs
    102          };
    103          
    104          /*********************************************************************
    105           * TYPEDEFS
    106           */
    107          
    108          /*********************************************************************
    109           * GLOBAL VARIABLES
    110           */

   \                                 In  segment XDATA_Z, align 1, keep-with-next
    111          devStates_t SampleApp_NwkState;   
   \                     SampleApp_NwkState:
   \   000000                DS 1
   \   000001                REQUIRE __INIT_XDATA_Z

   \                                 In  segment XDATA_Z, align 1, keep-with-next
    112          uint8 SampleApp_TaskID;           // Task ID for internal task/event processing.
   \                     SampleApp_TaskID:
   \   000000                DS 1
   \   000001                REQUIRE __INIT_XDATA_Z
    113          
    114          /*********************************************************************
    115           * EXTERNAL VARIABLES
    116           */
    117          
    118          /*********************************************************************
    119           * EXTERNAL FUNCTIONS
    120           */
    121          
    122          /*********************************************************************
    123           * LOCAL VARIABLES
    124           */
    125          
    126          static uint8 SampleApp_MsgID;
    127          

   \                                 In  segment XDATA_Z, align 1, keep-with-next
    128          afAddrType_t SampleApp_Periodic_DstAddr; //广播
   \                     SampleApp_Periodic_DstAddr:
   \   000000                DS 12
   \   00000C                REQUIRE __INIT_XDATA_Z

   \                                 In  segment XDATA_Z, align 1, keep-with-next
    129          afAddrType_t SampleApp_Flash_DstAddr;    //组播
   \                     SampleApp_Flash_DstAddr:
   \   000000                DS 12
   \   00000C                REQUIRE __INIT_XDATA_Z

   \                                 In  segment XDATA_Z, align 1, keep-with-next
    130          afAddrType_t SampleApp_P2P_DstAddr;      //点播
   \                     SampleApp_P2P_DstAddr:
   \   000000                DS 12
   \   00000C                REQUIRE __INIT_XDATA_Z
    131          
    132          
    133          static afAddrType_t SampleApp_TxAddr;
    134          static uint8 SampleApp_TxSeq;

   \                                 In  segment XDATA_Z, align 1, keep-with-next
    135          static uint8 SampleApp_TxBuf[SAMPLE_APP_TX_MAX+1];
   \                     SampleApp_TxBuf:
   \   000000                DS 81
   \   000051                REQUIRE __INIT_XDATA_Z

   \                                 In  segment XDATA_Z, align 1, keep-with-next
    136          static uint8 SampleApp_TxLen;
   \                     SampleApp_TxLen:
   \   000000                DS 1
   \   000001                REQUIRE __INIT_XDATA_Z
    137          
    138          static afAddrType_t SampleApp_RxAddr;

   \                                 In  segment XDATA_Z, align 1, keep-with-next
    139          static uint8 SampleApp_RxSeq;
   \                     SampleApp_RxSeq:
   \   000000                DS 1
   \   000001                REQUIRE __INIT_XDATA_Z
    140          static uint8 SampleApp_RspBuf[SAMPLE_APP_RSP_CNT];
    141          
    142          /*********************************************************************
    143           * LOCAL FUNCTIONS
    144           */
    145          
    146          static void SampleApp_ProcessMSGCmd( afIncomingMSGPacket_t *pkt );
    147          void SampleApp_CallBack(uint8 port, uint8 event); 
    148          static void SampleApp_Send_P2P_Message( void );
    149          
    150          

   \                                 In  segment XDATA_Z, align 1, keep-with-next
    151          uint8 temp1Int;     //协调器保存终端1温度
   \                     temp1Int:
   \   000000                DS 1
   \   000001                REQUIRE __INIT_XDATA_Z

   \                                 In  segment XDATA_Z, align 1, keep-with-next
    152          uint8 temp2Int;     //协调器保存终端2温度
   \                     temp2Int:
   \   000000                DS 1
   \   000001                REQUIRE __INIT_XDATA_Z

   \                                 In  segment XDATA_Z, align 1, keep-with-next
    153          uint8 temp3Int;     //协调器保存终端3温度
   \                     temp3Int:
   \   000000                DS 1
   \   000001                REQUIRE __INIT_XDATA_Z

   \                                 In  segment XDATA_Z, align 1, keep-with-next
    154          uint8 hum1Int;      //协调器保存终端1湿度
   \                     hum1Int:
   \   000000                DS 1
   \   000001                REQUIRE __INIT_XDATA_Z

   \                                 In  segment XDATA_Z, align 1, keep-with-next
    155          uint8 hum2Int;      //协调器保存终端2湿度
   \                     hum2Int:
   \   000000                DS 1
   \   000001                REQUIRE __INIT_XDATA_Z

   \                                 In  segment XDATA_Z, align 1, keep-with-next
    156          uint8 hum3Int;      //协调器保存终端3湿度
   \                     hum3Int:
   \   000000                DS 1
   \   000001                REQUIRE __INIT_XDATA_Z

   \                                 In  segment XDATA_Z, align 1, keep-with-next
    157          uint16 light1Int;   //协调器保存终端1光照
   \                     light1Int:
   \   000000                DS 2
   \   000002                REQUIRE __INIT_XDATA_Z

   \                                 In  segment XDATA_Z, align 1, keep-with-next
    158          uint16 light2Int;   //协调器保存终端2光照
   \                     light2Int:
   \   000000                DS 2
   \   000002                REQUIRE __INIT_XDATA_Z

   \                                 In  segment XDATA_Z, align 1, keep-with-next
    159          uint16 light3Int;   //协调器保存终端3光照
   \                     light3Int:
   \   000000                DS 2
   \   000002                REQUIRE __INIT_XDATA_Z

   \                                 In  segment XDATA_Z, align 1, keep-with-next
    160          uint32 light32;     //临时光照数据32
   \                     light32:
   \   000000                DS 4
   \   000004                REQUIRE __INIT_XDATA_Z

   \                                 In  segment XDATA_Z, align 1, keep-with-next
    161          uint16 light;
   \                     light:
   \   000000                DS 2
   \   000002                REQUIRE __INIT_XDATA_Z

   \                                 In  segment XDATA_Z, align 1, keep-with-next
    162          uint8 state1Int;    //协调器保存终端1上线状态,0为离线，1为在线
   \                     state1Int:
   \   000000                DS 1
   \   000001                REQUIRE __INIT_XDATA_Z

   \                                 In  segment XDATA_Z, align 1, keep-with-next
    163          uint8 state2Int;    //协调器保存终端2上线状态
   \                     state2Int:
   \   000000                DS 1
   \   000001                REQUIRE __INIT_XDATA_Z

   \                                 In  segment XDATA_Z, align 1, keep-with-next
    164          uint8 state3Int;    //协调器保存终端3上线状态
   \                     state3Int:
   \   000000                DS 1
   \   000001                REQUIRE __INIT_XDATA_Z

   \                                 In  segment XDATA_Z, align 1, keep-with-next
    165          uint16 bat1;         //协调器保存终端1电压
   \                     bat1:
   \   000000                DS 2
   \   000002                REQUIRE __INIT_XDATA_Z

   \                                 In  segment XDATA_Z, align 1, keep-with-next
    166          uint16 bat2;         //协调器保存终端2电压
   \                     bat2:
   \   000000                DS 2
   \   000002                REQUIRE __INIT_XDATA_Z

   \                                 In  segment XDATA_Z, align 1, keep-with-next
    167          uint16 bat3;         //协调器保存终端3电压
   \                     bat3:
   \   000000                DS 2
   \   000002                REQUIRE __INIT_XDATA_Z

   \                                 In  segment XDATA_Z, align 1, keep-with-next
    168          uint16 bat;         //临时电量数据
   \                     bat:
   \   000000                DS 2
   \   000002                REQUIRE __INIT_XDATA_Z

   \                                 In  segment XDATA_Z, align 1, keep-with-next
    169          uint8 bat1State = 0;    //节点1电池充电状态
   \                     bat1State:
   \   000000                DS 1
   \   000001                REQUIRE __INIT_XDATA_Z

   \                                 In  segment XDATA_Z, align 1, keep-with-next
    170          uint8 bat2State = 0;    //节点2电池充电状态
   \                     bat2State:
   \   000000                DS 1
   \   000001                REQUIRE __INIT_XDATA_Z

   \                                 In  segment XDATA_Z, align 1, keep-with-next
    171          uint8 bat3State = 0;    //节点3电池充电状态
   \                     bat3State:
   \   000000                DS 1
   \   000001                REQUIRE __INIT_XDATA_Z
    172          
    173          //cJSON *cjson_head=NULL; //json数据包

   \                                 In  segment XDATA_Z, align 1, keep-with-next
    174          char *str=NULL;         //转化的发送内容
   \                     str:
   \   000000                DS 2
   \   000002                REQUIRE __INIT_XDATA_Z
    175          
    176          /*********************************************************************
    177           * @fn      示例应用程序信息//SampleApp_Init
    178           *
    179           * @brief   这是在OSAL任务初始化期间调用的//This is called during OSAL tasks' initialization.
    180           *
    181           * @param   task_id-OSAL分配的任务id//task_id - the Task ID assigned by OSAL.
    182           *
    183           * @return  none
    184           */

   \                                 In  segment BANKED_CODE, align 1, keep-with-next
    185          void SampleApp_Init( uint8 task_id )
   \                     SampleApp_Init:
    186          {
   \   000000   74F6         MOV     A,#-0xa
   \   000002   12....       LCALL   ?BANKED_ENTER_XDATA
   \   000005                ; Saved register size: 10
   \   000005                ; Auto size: 0
   \   000005   E9           MOV     A,R1
   \   000006   FE           MOV     R6,A
    187            halUARTCfg_t uartConfig;
    188          
    189            SampleApp_TaskID = task_id;
   \   000007   90....       MOV     DPTR,#SampleApp_TaskID
   \   00000A   F0           MOVX    @DPTR,A
    190            SampleApp_RxSeq = 0xC3;
   \   00000B   90....       MOV     DPTR,#SampleApp_RxSeq
   \   00000E   74C3         MOV     A,#-0x3d
   \   000010   F0           MOVX    @DPTR,A
    191            SampleApp_NwkState = DEV_INIT;       
   \   000011   90....       MOV     DPTR,#SampleApp_NwkState
   \   000014   7401         MOV     A,#0x1
   \   000016   F0           MOVX    @DPTR,A
    192          
    193            MT_UartInit();                  //串口初始化
                   ^
Warning[Pe223]: function "MT_UartInit" declared implicitly
   \   000017                ; Setup parameters for call to function MT_UartInit
   \   000017   12....       LCALL   ??MT_UartInit?relay
    194            MT_UartRegisterTaskID(task_id); //注册串口任务
                   ^
Warning[Pe223]: function "MT_UartRegisterTaskID" declared implicitly
   \   00001A                ; Setup parameters for call to function MT_UartRegisterTaskID
   \   00001A   8E..         MOV     ?V0 + 0,R6
   \   00001C   AA..         MOV     R2,?V0 + 0
   \   00001E   7B00         MOV     R3,#0x0
   \   000020   12....       LCALL   ??MT_UartRegisterTaskID?relay
    195            afRegister( (endPointDesc_t *)&SampleApp_epDesc );
   \   000023                ; Setup parameters for call to function afRegister
   \   000023   7A..         MOV     R2,#SampleApp_epDesc & 0xff
   \   000025   7B..         MOV     R3,#(SampleApp_epDesc >> 8) & 0xff
   \   000027   12....       LCALL   ??afRegister?relay
    196            RegisterForKeys( task_id );
   \   00002A                ; Setup parameters for call to function RegisterForKeys
   \   00002A   EE           MOV     A,R6
   \   00002B   F9           MOV     R1,A
   \   00002C   12....       LCALL   ??RegisterForKeys?relay
    197          
    198          #ifdef ZDO_COORDINATOR
    199            //协调器初始化
    200            Init_ADC0();
   \   00002F                ; Setup parameters for call to function Init_ADC0
   \   00002F   12....       LCALL   ??Init_ADC0?relay
    201            Init_P06();
   \   000032                ; Setup parameters for call to function Init_P06
   \   000032   12....       LCALL   ??Init_P06?relay
    202            
    203          #else
    204            //终端初始化
    205            B_LUX30_Init();                 //光照传感器初始化
    206            Init_ADC0();
    207            Init_P06();
    208            
    209          #endif
    210          
    211            SampleApp_Periodic_DstAddr.addrMode = (afAddrMode_t)AddrBroadcast;//广播
   \   000035   90....       MOV     DPTR,#SampleApp_Periodic_DstAddr + 8
   \   000038   740F         MOV     A,#0xf
   \   00003A   F0           MOVX    @DPTR,A
    212            SampleApp_Periodic_DstAddr.endPoint = SAMPLEAPP_ENDPOINT;
   \   00003B   A3           INC     DPTR
   \   00003C   740B         MOV     A,#0xb
   \   00003E   F0           MOVX    @DPTR,A
    213            SampleApp_Periodic_DstAddr.addr.shortAddr = 0xFFFF;
   \   00003F   90....       MOV     DPTR,#SampleApp_Periodic_DstAddr
   \   000042   74FF         MOV     A,#-0x1
   \   000044   F0           MOVX    @DPTR,A
   \   000045   A3           INC     DPTR
   \   000046   F0           MOVX    @DPTR,A
    214          
    215            // Setup for the flash command's destination address - Group 1
    216            SampleApp_Flash_DstAddr.addrMode = (afAddrMode_t)afAddrGroup;//组播
   \   000047   90....       MOV     DPTR,#SampleApp_Flash_DstAddr + 8
   \   00004A   7401         MOV     A,#0x1
   \   00004C   F0           MOVX    @DPTR,A
    217            SampleApp_Flash_DstAddr.endPoint = SAMPLEAPP_ENDPOINT;
   \   00004D   A3           INC     DPTR
   \   00004E   740B         MOV     A,#0xb
   \   000050   F0           MOVX    @DPTR,A
    218            SampleApp_Flash_DstAddr.addr.shortAddr = SAMPLEAPP_FLASH_GROUP;
   \   000051   90....       MOV     DPTR,#SampleApp_Flash_DstAddr
   \   000054   7401         MOV     A,#0x1
   \   000056   F0           MOVX    @DPTR,A
   \   000057   A3           INC     DPTR
   \   000058   E4           CLR     A
   \   000059   F0           MOVX    @DPTR,A
    219            
    220            SampleApp_P2P_DstAddr.addrMode = (afAddrMode_t)Addr16Bit; //点播 
   \   00005A   90....       MOV     DPTR,#SampleApp_P2P_DstAddr + 8
   \   00005D   7402         MOV     A,#0x2
   \   00005F   F0           MOVX    @DPTR,A
    221            SampleApp_P2P_DstAddr.endPoint = SAMPLEAPP_ENDPOINT; 
   \   000060   A3           INC     DPTR
   \   000061   740B         MOV     A,#0xb
   \   000063   F0           MOVX    @DPTR,A
    222            SampleApp_P2P_DstAddr.addr.shortAddr = 0x0000;            //发给协调器
   \   000064   90....       MOV     DPTR,#SampleApp_P2P_DstAddr
   \   000067   E4           CLR     A
   \   000068   F0           MOVX    @DPTR,A
   \   000069   A3           INC     DPTR
   \   00006A   F0           MOVX    @DPTR,A
    223          
    224            
    225          }
   \   00006B                REQUIRE ?Subroutine0
   \   00006B                ; // Fall through to label ?Subroutine0

   \                                 In  segment BANKED_CODE, align 1, keep-with-next
   \                     ?Subroutine0:
   \   000000   7F02         MOV     R7,#0x2
   \   000002   02....       LJMP    ?BANKED_LEAVE_XDATA
    226          
    227          /*********************************************************************
    228           * @fn      SampleApp_ProcessEvent
    229           *
    230           * @brief   Generic Application Task event processor.
    231           *
    232           * @param   task_id  - The OSAL assigned task ID.
    233           * @param   events   - Bit map of events to process.
    234           *
    235           * @return  Event flags of all unprocessed events.
    236           */

   \                                 In  segment BANKED_CODE, align 1, keep-with-next
    237          UINT16 SampleApp_ProcessEvent( uint8 task_id, UINT16 events )
   \                     SampleApp_ProcessEvent:
    238          {
   \   000000   74F0         MOV     A,#-0x10
   \   000002   12....       LCALL   ?BANKED_ENTER_XDATA
   \   000005                ; Saved register size: 16
   \   000005                ; Auto size: 384
   \   000005   758280       MOV     DPL,#-0x80
   \   000008   7583FE       MOV     DPH,#-0x2
   \   00000B   12....       LCALL   ?ADD_XSTACK_DISP0_16
   \   00000E   8A..         MOV     ?V0 + 0,R2
   \   000010   8B..         MOV     ?V0 + 1,R3
    239            (void)task_id;  // Intentionally unreferenced parameter
    240            
    241            if ( events & SYS_EVENT_MSG )
   \   000012   EB           MOV     A,R3
   \   000013   5480         ANL     A,#0x80
   \   000015   6003         JZ      $+5
   \   000017   02....       LJMP    ??SampleApp_ProcessEvent_0 & 0xFFFF
    242            {
    243              afIncomingMSGPacket_t *MSGpkt;
    244          
    245              while ( (MSGpkt = (afIncomingMSGPacket_t *)osal_msg_receive( SampleApp_TaskID )) )
    246              {
    247                switch ( MSGpkt->hdr.event )
    248                {
    249                case AF_INCOMING_MSG_CMD:
    250                  SampleApp_ProcessMSGCmd( MSGpkt );
    251                  break;
    252                  
    253                case ZDO_STATE_CHANGE:
    254                  SampleApp_NwkState = (devStates_t)(MSGpkt->hdr.status);
    255                  if ( (SampleApp_NwkState == DEV_ZB_COORD)||
    256                      (SampleApp_NwkState == DEV_ROUTER)
    257                      || (SampleApp_NwkState == DEV_END_DEVICE) )
    258                  {
    259                      //连网成功后，启动一个定时器
    260                      osal_start_timerEx( SampleApp_TaskID,
    261                                        SAMPLEAPP_SEND_PERIODIC_MSG_EVT,
    262                                        SAMPLEAPP_SEND_PERIODIC_MSG_TIMEOUT );  //3秒定时器
    263                  }
    264                  else
    265                  {
    266                    // Device is no longer in the network
    267                  }
    268                  break;
    269          
    270                default:
    271                  break;
    272                }
    273          
    274                osal_msg_deallocate( (uint8 *)MSGpkt );
    275              }
    276          
    277              return ( events ^ SYS_EVENT_MSG );
    278            }
    279          
    280            //定时器时间到
    281            if ( events & SAMPLEAPP_SEND_PERIODIC_MSG_EVT )
   \   00001A   EA           MOV     A,R2
   \   00001B   A2E0         MOV     C,0xE0 /* A   */.0
   \   00001D   4003         JC      $+5
   \   00001F   02....       LJMP    ??SampleApp_ProcessEvent_1 & 0xFFFF
    282            {
    283              
    284          #ifdef ZDO_COORDINATOR   //协调器节点完成的工作
    285              
    286              //协调器串口输出数据
    287              {
    288                uint8 buff[384]={0};
   \   000022   85..82       MOV     DPL,?XSP + 0
   \   000025   AC82         MOV     R4,DPL
   \   000027   AD83         MOV     R5,DPH
   \   000029   7583..       MOV     DPH,#(`?<Constant {0}>` >> 8) & 0xff
   \   00002C   7582..       MOV     DPL,#`?<Constant {0}>` & 0xff
   \   00002F   7480         MOV     A,#-0x80
   \   000031   7B02         MOV     R3,#0x2
   \   000033   12....       LCALL   ?MOVE_LONG16_XDATA_XDATA
    289                
    290                cJSON *cjson_head=NULL; //json数据包
    291                char *str=NULL;         //转化的发送内容
    292                
    293                cjson_head=cJSON_CreateObject();
   \   000036                ; Setup parameters for call to function cJSON_CreateObject
   \   000036   12....       LCALL   ??cJSON_CreateObject?relay
   \   000039   8A..         MOV     ?V0 + 2,R2
   \   00003B   8B..         MOV     ?V0 + 3,R3
   \   00003D   AE..         MOV     R6,?V0 + 2
   \   00003F   AF..         MOV     R7,?V0 + 3
    294          
    295                cJSON_AddNumberToObject(cjson_head,"tem1",temp1Int);
   \   000041                ; Setup parameters for call to function cJSON_AddNumberToObject
   \   000041   90....       MOV     DPTR,#temp1Int
   \   000044   12....       LCALL   ?Subroutine1 & 0xFFFF
   \                     ??CrossCallReturnLabel_0:
   \   000047   12....       LCALL   ?UL_TO_FLT
   \   00004A   78..         MOV     R0,#?V0 + 4
   \   00004C   12....       LCALL   ?PUSH_XSTACK_I_FOUR
   \   00004F   7C..         MOV     R4,#`?<Constant "tem1">` & 0xff
   \   000051   7D..         MOV     R5,#(`?<Constant "tem1">` >> 8) & 0xff
   \   000053   12....       LCALL   ??Subroutine6_0 & 0xFFFF
   \                     ??CrossCallReturnLabel_36:
   \   000056   12....       LCALL   ?DEALLOC_XSTACK8
    296                cJSON_AddNumberToObject(cjson_head,"hum1",hum1Int);
   \   000059                ; Setup parameters for call to function cJSON_AddNumberToObject
   \   000059   90....       MOV     DPTR,#hum1Int
   \   00005C   12....       LCALL   ?Subroutine1 & 0xFFFF
   \                     ??CrossCallReturnLabel_1:
   \   00005F   12....       LCALL   ?UL_TO_FLT
   \   000062   78..         MOV     R0,#?V0 + 4
   \   000064   12....       LCALL   ?PUSH_XSTACK_I_FOUR
   \   000067   7C..         MOV     R4,#`?<Constant "hum1">` & 0xff
   \   000069   7D..         MOV     R5,#(`?<Constant "hum1">` >> 8) & 0xff
   \   00006B   12....       LCALL   ?Subroutine5 & 0xFFFF
   \                     ??CrossCallReturnLabel_21:
   \   00006E   12....       LCALL   ?DEALLOC_XSTACK8
    297                cJSON_AddNumberToObject(cjson_head,"lux1",light1Int);
   \   000071                ; Setup parameters for call to function cJSON_AddNumberToObject
   \   000071   90....       MOV     DPTR,#light1Int
   \   000074   12....       LCALL   ?Subroutine2 & 0xFFFF
   \                     ??CrossCallReturnLabel_10:
   \   000077   12....       LCALL   ?UL_TO_FLT
   \   00007A   78..         MOV     R0,#?V0 + 4
   \   00007C   12....       LCALL   ?PUSH_XSTACK_I_FOUR
   \   00007F   7C..         MOV     R4,#`?<Constant "lux1">` & 0xff
   \   000081   7D..         MOV     R5,#(`?<Constant "lux1">` >> 8) & 0xff
   \   000083   12....       LCALL   ?Subroutine5 & 0xFFFF
   \                     ??CrossCallReturnLabel_22:
   \   000086   12....       LCALL   ?DEALLOC_XSTACK8
    298                cJSON_AddNumberToObject(cjson_head,"bat1",bat1);
   \   000089                ; Setup parameters for call to function cJSON_AddNumberToObject
   \   000089   90....       MOV     DPTR,#bat1
   \   00008C   12....       LCALL   ?Subroutine2 & 0xFFFF
   \                     ??CrossCallReturnLabel_11:
   \   00008F   12....       LCALL   ?UL_TO_FLT
   \   000092   78..         MOV     R0,#?V0 + 4
   \   000094   12....       LCALL   ?PUSH_XSTACK_I_FOUR
   \   000097   7C..         MOV     R4,#`?<Constant "bat1">` & 0xff
   \   000099   7D..         MOV     R5,#(`?<Constant "bat1">` >> 8) & 0xff
   \   00009B   12....       LCALL   ?Subroutine5 & 0xFFFF
   \                     ??CrossCallReturnLabel_23:
   \   00009E   12....       LCALL   ?DEALLOC_XSTACK8
    299                cJSON_AddNumberToObject(cjson_head,"state1",state1Int);
   \   0000A1                ; Setup parameters for call to function cJSON_AddNumberToObject
   \   0000A1   90....       MOV     DPTR,#state1Int
   \   0000A4   12....       LCALL   ?Subroutine1 & 0xFFFF
   \                     ??CrossCallReturnLabel_2:
   \   0000A7   12....       LCALL   ?UL_TO_FLT
   \   0000AA   78..         MOV     R0,#?V0 + 4
   \   0000AC   12....       LCALL   ?PUSH_XSTACK_I_FOUR
   \   0000AF   7C..         MOV     R4,#`?<Constant "state1">` & 0xff
   \   0000B1   7D..         MOV     R5,#(`?<Constant "state1">` >> 8) & 0xff
   \   0000B3   12....       LCALL   ?Subroutine5 & 0xFFFF
   \                     ??CrossCallReturnLabel_24:
   \   0000B6   12....       LCALL   ?DEALLOC_XSTACK8
    300                
    301                cJSON_AddNumberToObject(cjson_head,"tem2",temp2Int);
   \   0000B9                ; Setup parameters for call to function cJSON_AddNumberToObject
   \   0000B9   90....       MOV     DPTR,#temp2Int
   \   0000BC   12....       LCALL   ?Subroutine1 & 0xFFFF
   \                     ??CrossCallReturnLabel_3:
   \   0000BF   12....       LCALL   ?UL_TO_FLT
   \   0000C2   78..         MOV     R0,#?V0 + 4
   \   0000C4   12....       LCALL   ?PUSH_XSTACK_I_FOUR
   \   0000C7   7C..         MOV     R4,#`?<Constant "tem2">` & 0xff
   \   0000C9   7D..         MOV     R5,#(`?<Constant "tem2">` >> 8) & 0xff
   \   0000CB   12....       LCALL   ?Subroutine5 & 0xFFFF
   \                     ??CrossCallReturnLabel_25:
   \   0000CE   12....       LCALL   ?DEALLOC_XSTACK8
    302                cJSON_AddNumberToObject(cjson_head,"hum2",hum2Int);
   \   0000D1                ; Setup parameters for call to function cJSON_AddNumberToObject
   \   0000D1   90....       MOV     DPTR,#hum2Int
   \   0000D4   12....       LCALL   ?Subroutine1 & 0xFFFF
   \                     ??CrossCallReturnLabel_4:
   \   0000D7   12....       LCALL   ?UL_TO_FLT
   \   0000DA   78..         MOV     R0,#?V0 + 4
   \   0000DC   12....       LCALL   ?PUSH_XSTACK_I_FOUR
   \   0000DF   7C..         MOV     R4,#`?<Constant "hum2">` & 0xff
   \   0000E1   7D..         MOV     R5,#(`?<Constant "hum2">` >> 8) & 0xff
   \   0000E3   12....       LCALL   ?Subroutine5 & 0xFFFF
   \                     ??CrossCallReturnLabel_26:
   \   0000E6   12....       LCALL   ?DEALLOC_XSTACK8
    303                cJSON_AddNumberToObject(cjson_head,"lux2",light2Int);
   \   0000E9                ; Setup parameters for call to function cJSON_AddNumberToObject
   \   0000E9   90....       MOV     DPTR,#light2Int
   \   0000EC   12....       LCALL   ?Subroutine2 & 0xFFFF
   \                     ??CrossCallReturnLabel_12:
   \   0000EF   12....       LCALL   ?UL_TO_FLT
   \   0000F2   78..         MOV     R0,#?V0 + 4
   \   0000F4   12....       LCALL   ?PUSH_XSTACK_I_FOUR
   \   0000F7   7C..         MOV     R4,#`?<Constant "lux2">` & 0xff
   \   0000F9   7D..         MOV     R5,#(`?<Constant "lux2">` >> 8) & 0xff
   \   0000FB   12....       LCALL   ?Subroutine5 & 0xFFFF
   \                     ??CrossCallReturnLabel_27:
   \   0000FE   12....       LCALL   ?DEALLOC_XSTACK8
    304                cJSON_AddNumberToObject(cjson_head,"bat2",bat2);
   \   000101                ; Setup parameters for call to function cJSON_AddNumberToObject
   \   000101   90....       MOV     DPTR,#bat2
   \   000104   12....       LCALL   ?Subroutine2 & 0xFFFF
   \                     ??CrossCallReturnLabel_13:
   \   000107   12....       LCALL   ?UL_TO_FLT
   \   00010A   78..         MOV     R0,#?V0 + 4
   \   00010C   12....       LCALL   ?PUSH_XSTACK_I_FOUR
   \   00010F   7C..         MOV     R4,#`?<Constant "bat2">` & 0xff
   \   000111   7D..         MOV     R5,#(`?<Constant "bat2">` >> 8) & 0xff
   \   000113   12....       LCALL   ?Subroutine5 & 0xFFFF
   \                     ??CrossCallReturnLabel_28:
   \   000116   12....       LCALL   ?DEALLOC_XSTACK8
    305                cJSON_AddNumberToObject(cjson_head,"state2",state2Int);
   \   000119                ; Setup parameters for call to function cJSON_AddNumberToObject
   \   000119   90....       MOV     DPTR,#state2Int
   \   00011C   12....       LCALL   ?Subroutine1 & 0xFFFF
   \                     ??CrossCallReturnLabel_5:
   \   00011F   12....       LCALL   ?UL_TO_FLT
   \   000122   78..         MOV     R0,#?V0 + 4
   \   000124   12....       LCALL   ?PUSH_XSTACK_I_FOUR
   \   000127   7C..         MOV     R4,#`?<Constant "state2">` & 0xff
   \   000129   7D..         MOV     R5,#(`?<Constant "state2">` >> 8) & 0xff
   \   00012B   12....       LCALL   ?Subroutine5 & 0xFFFF
   \                     ??CrossCallReturnLabel_29:
   \   00012E   12....       LCALL   ?DEALLOC_XSTACK8
    306                cJSON_AddNumberToObject(cjson_head,"bat2State",bat2State);      
   \   000131                ; Setup parameters for call to function cJSON_AddNumberToObject
   \   000131   90....       MOV     DPTR,#bat2State
   \   000134   12....       LCALL   ?Subroutine1 & 0xFFFF
   \                     ??CrossCallReturnLabel_6:
   \   000137   12....       LCALL   ?UL_TO_FLT
   \   00013A   78..         MOV     R0,#?V0 + 4
   \   00013C   12....       LCALL   ?PUSH_XSTACK_I_FOUR
   \   00013F   7C..         MOV     R4,#`?<Constant "bat2State">` & 0xff
   \   000141   7D..         MOV     R5,#(`?<Constant "bat2State">` >> 8) & 0xff
   \   000143   12....       LCALL   ?Subroutine5 & 0xFFFF
   \                     ??CrossCallReturnLabel_30:
   \   000146   12....       LCALL   ?DEALLOC_XSTACK8
    307                
    308                cJSON_AddNumberToObject(cjson_head,"tem3",temp3Int);
   \   000149                ; Setup parameters for call to function cJSON_AddNumberToObject
   \   000149   90....       MOV     DPTR,#temp3Int
   \   00014C   12....       LCALL   ?Subroutine1 & 0xFFFF
   \                     ??CrossCallReturnLabel_7:
   \   00014F   12....       LCALL   ?UL_TO_FLT
   \   000152   78..         MOV     R0,#?V0 + 4
   \   000154   12....       LCALL   ?PUSH_XSTACK_I_FOUR
   \   000157   7C..         MOV     R4,#`?<Constant "tem3">` & 0xff
   \   000159   7D..         MOV     R5,#(`?<Constant "tem3">` >> 8) & 0xff
   \   00015B   12....       LCALL   ?Subroutine5 & 0xFFFF
   \                     ??CrossCallReturnLabel_31:
   \   00015E   12....       LCALL   ?DEALLOC_XSTACK8
    309                cJSON_AddNumberToObject(cjson_head,"hum3",hum3Int);
   \   000161                ; Setup parameters for call to function cJSON_AddNumberToObject
   \   000161   90....       MOV     DPTR,#hum3Int
   \   000164   12....       LCALL   ?Subroutine1 & 0xFFFF
   \                     ??CrossCallReturnLabel_8:
   \   000167   12....       LCALL   ?UL_TO_FLT
   \   00016A   78..         MOV     R0,#?V0 + 4
   \   00016C   12....       LCALL   ?PUSH_XSTACK_I_FOUR
   \   00016F   7C..         MOV     R4,#`?<Constant "hum3">` & 0xff
   \   000171   7D..         MOV     R5,#(`?<Constant "hum3">` >> 8) & 0xff
   \   000173   12....       LCALL   ?Subroutine5 & 0xFFFF
   \                     ??CrossCallReturnLabel_32:
   \   000176   12....       LCALL   ?DEALLOC_XSTACK8
    310                cJSON_AddNumberToObject(cjson_head,"lux3",light3Int);
   \   000179                ; Setup parameters for call to function cJSON_AddNumberToObject
   \   000179   90....       MOV     DPTR,#light3Int
   \   00017C   12....       LCALL   ?Subroutine2 & 0xFFFF
   \                     ??CrossCallReturnLabel_14:
   \   00017F   12....       LCALL   ?UL_TO_FLT
   \   000182   78..         MOV     R0,#?V0 + 4
   \   000184   12....       LCALL   ?PUSH_XSTACK_I_FOUR
   \   000187   7C..         MOV     R4,#`?<Constant "lux3">` & 0xff
   \   000189   7D..         MOV     R5,#(`?<Constant "lux3">` >> 8) & 0xff
   \   00018B   12....       LCALL   ?Subroutine5 & 0xFFFF
   \                     ??CrossCallReturnLabel_33:
   \   00018E   12....       LCALL   ?DEALLOC_XSTACK8
    311                cJSON_AddNumberToObject(cjson_head,"bat3",bat3);
   \   000191                ; Setup parameters for call to function cJSON_AddNumberToObject
   \   000191   90....       MOV     DPTR,#bat3
   \   000194   12....       LCALL   ?Subroutine2 & 0xFFFF
   \                     ??CrossCallReturnLabel_15:
   \   000197   12....       LCALL   ?UL_TO_FLT
   \   00019A   78..         MOV     R0,#?V0 + 4
   \   00019C   12....       LCALL   ?PUSH_XSTACK_I_FOUR
   \   00019F   7C..         MOV     R4,#`?<Constant "bat3">` & 0xff
   \   0001A1   7D..         MOV     R5,#(`?<Constant "bat3">` >> 8) & 0xff
   \   0001A3   12....       LCALL   ?Subroutine5 & 0xFFFF
   \                     ??CrossCallReturnLabel_34:
   \   0001A6   12....       LCALL   ?DEALLOC_XSTACK8
    312                cJSON_AddNumberToObject(cjson_head,"state3",state3Int);
   \   0001A9                ; Setup parameters for call to function cJSON_AddNumberToObject
   \   0001A9   90....       MOV     DPTR,#state3Int
   \   0001AC   12....       LCALL   ?Subroutine1 & 0xFFFF
   \                     ??CrossCallReturnLabel_9:
   \   0001AF   12....       LCALL   ?UL_TO_FLT
   \   0001B2   78..         MOV     R0,#?V0 + 4
   \   0001B4   12....       LCALL   ?PUSH_XSTACK_I_FOUR
   \   0001B7   7C..         MOV     R4,#`?<Constant "state3">` & 0xff
   \   0001B9   7D..         MOV     R5,#(`?<Constant "state3">` >> 8) & 0xff
   \   0001BB   12....       LCALL   ?Subroutine5 & 0xFFFF
   \                     ??CrossCallReturnLabel_35:
   \   0001BE   12....       LCALL   ?DEALLOC_XSTACK8
    313                
    314                str = cJSON_Print(cjson_head);
   \   0001C1                ; Setup parameters for call to function cJSON_Print
   \   0001C1   EE           MOV     A,R6
   \   0001C2   FA           MOV     R2,A
   \   0001C3   EF           MOV     A,R7
   \   0001C4   FB           MOV     R3,A
   \   0001C5   12....       LCALL   ??cJSON_Print?relay
   \   0001C8   8A..         MOV     ?V0 + 2,R2
   \   0001CA   8B..         MOV     ?V0 + 3,R3
    315          
    316          //      //格式化温度数据，收集数据，用于串口输出
    317          //      sprintf(buff, "I1T%dH%dL%uS%dE\n", temp1Int, hum1Int, light1Int, state1Int);
    318                
    319          //      sprintf(buff, "I1T%dH%dL%uB%uS%dE\n", temp1Int, hum1Int, light1Int, bat1, state1Int);
    320          //      
    321          //      //串口输出
    322          //      HalUARTWrite(0, buff, osal_strlen(buff));
    323                
    324                //转buff
    325                sprintf(buff, str);
                               ^
Warning[Pe167]: argument of type "unsigned char *" is incompatible with
          parameter of type "char *"
   \   0001CC                ; Setup parameters for call to function sprintf
   \   0001CC   AC..         MOV     R4,?V0 + 2
   \   0001CE   AD..         MOV     R5,?V0 + 3
   \   0001D0   85..82       MOV     DPL,?XSP + 0
   \   0001D3   85..83       MOV     DPH,?XSP + 1
   \   0001D6   AA82         MOV     R2,DPL
   \   0001D8   AB83         MOV     R3,DPH
   \   0001DA   12....       LCALL   ??sprintf?relay
    326                
    327                //串口输出
    328                HalUARTWrite(0, buff, osal_strlen(buff));
                                                         ^
Warning[Pe167]: argument of type "unsigned char *" is incompatible with
          parameter of type "char *"
   \   0001DD                ; Setup parameters for call to function HalUARTWrite
   \   0001DD                ; Setup parameters for call to function osal_strlen
   \   0001DD   85..82       MOV     DPL,?XSP + 0
   \   0001E0   85..83       MOV     DPH,?XSP + 1
   \   0001E3   AA82         MOV     R2,DPL
   \   0001E5   AB83         MOV     R3,DPH
   \   0001E7   12....       LCALL   ??osal_strlen?relay
   \   0001EA   EA           MOV     A,R2
   \   0001EB   FC           MOV     R4,A
   \   0001EC   EB           MOV     A,R3
   \   0001ED   FD           MOV     R5,A
   \   0001EE   85..82       MOV     DPL,?XSP + 0
   \   0001F1   85..83       MOV     DPH,?XSP + 1
   \   0001F4   AA82         MOV     R2,DPL
   \   0001F6   AB83         MOV     R3,DPH
   \   0001F8   7900         MOV     R1,#0x0
   \   0001FA   12....       LCALL   ??HalUARTWrite?relay
    329                
    330          //      int bbb = Get_P06();     //获取充电池电状态
    331          //      
    332          //      sprintf(buff, "%d",bbb);
    333          //      
    334          //      HalUARTWrite(0, buff, osal_strlen(buff));
    335                
    336                //释放内存
    337                cJSON_Delete(cjson_head);
   \   0001FD                ; Setup parameters for call to function cJSON_Delete
   \   0001FD   EE           MOV     A,R6
   \   0001FE   FA           MOV     R2,A
   \   0001FF   EF           MOV     A,R7
   \   000200   FB           MOV     R3,A
   \   000201   12....       LCALL   ??cJSON_Delete?relay
    338                osal_mem_free(str);
   \   000204                ; Setup parameters for call to function osal_mem_free
   \   000204   AA..         MOV     R2,?V0 + 2
   \   000206   AB..         MOV     R3,?V0 + 3
   \   000208   12....       LCALL   ??osal_mem_free?relay
    339                
    340                //状态定时器设为0
    341                state1Int=0;
   \   00020B   90....       MOV     DPTR,#state1Int
   \   00020E   E4           CLR     A
   \   00020F   F0           MOVX    @DPTR,A
    342                state2Int=0;
   \   000210   90....       MOV     DPTR,#state2Int
   \   000213   F0           MOVX    @DPTR,A
    343                state3Int=0;
   \   000214   90....       MOV     DPTR,#state3Int
   \   000217   F0           MOVX    @DPTR,A
    344              }
    345              
    346          #else                    //终端类节点完成的工作
    347              
    348              //终端周期采集温湿度数据（发送数据),无线传输数据
    349              SampleApp_Send_P2P_Message();
    350              
    351          #endif
    352          
    353              // 重新启动定时器
    354              osal_start_timerEx( SampleApp_TaskID, SAMPLEAPP_SEND_PERIODIC_MSG_EVT,
    355                  (SAMPLEAPP_SEND_PERIODIC_MSG_TIMEOUT + (osal_rand() & 0x00FF)) );
   \   000218                ; Setup parameters for call to function osal_rand
   \   000218   12....       LCALL   ??osal_rand?relay
   \   00021B                ; Setup parameters for call to function osal_start_timerEx
   \   00021B   EA           MOV     A,R2
   \   00021C   24E8         ADD     A,#-0x18
   \   00021E   FC           MOV     R4,A
   \   00021F   E4           CLR     A
   \   000220   3403         ADDC    A,#0x3
   \   000222   FD           MOV     R5,A
   \   000223   7A01         MOV     R2,#0x1
   \   000225   7B00         MOV     R3,#0x0
   \   000227   90....       MOV     DPTR,#SampleApp_TaskID
   \   00022A   E0           MOVX    A,@DPTR
   \   00022B   F9           MOV     R1,A
   \   00022C   12....       LCALL   ??osal_start_timerEx?relay
    356          
    357              // return unprocessed events
    358              return (events ^ SAMPLEAPP_SEND_PERIODIC_MSG_EVT);
   \   00022F   E5..         MOV     A,?V0 + 0
   \   000231   6401         XRL     A,#0x1
   \   000233   FA           MOV     R2,A
   \   000234   AB..         MOV     R3,?V0 + 1
   \   000236   8060         SJMP    ??SampleApp_ProcessEvent_2
    359            }
   \                     ??SampleApp_ProcessEvent_3:
   \   000238   A3           INC     DPTR
   \   000239   E0           MOVX    A,@DPTR
   \   00023A   90....       MOV     DPTR,#SampleApp_NwkState
   \   00023D   F0           MOVX    @DPTR,A
   \   00023E   6409         XRL     A,#0x9
   \   000240   600A         JZ      ??SampleApp_ProcessEvent_4
   \   000242   E0           MOVX    A,@DPTR
   \   000243   6407         XRL     A,#0x7
   \   000245   6005         JZ      ??SampleApp_ProcessEvent_4
   \   000247   E0           MOVX    A,@DPTR
   \   000248   6406         XRL     A,#0x6
   \   00024A   7010         JNZ     ??SampleApp_ProcessEvent_5
   \                     ??SampleApp_ProcessEvent_4:
   \   00024C                ; Setup parameters for call to function osal_start_timerEx
   \   00024C   7CE8         MOV     R4,#-0x18
   \   00024E   7D03         MOV     R5,#0x3
   \   000250   7A01         MOV     R2,#0x1
   \   000252   7B00         MOV     R3,#0x0
   \   000254   90....       MOV     DPTR,#SampleApp_TaskID
   \   000257   E0           MOVX    A,@DPTR
   \   000258   F9           MOV     R1,A
   \   000259   12....       LCALL   ??osal_start_timerEx?relay
   \                     ??SampleApp_ProcessEvent_5:
   \   00025C                ; Setup parameters for call to function osal_msg_deallocate
   \   00025C   EE           MOV     A,R6
   \   00025D   FA           MOV     R2,A
   \   00025E   EF           MOV     A,R7
   \   00025F   FB           MOV     R3,A
   \   000260   12....       LCALL   ??osal_msg_deallocate?relay
   \                     ??SampleApp_ProcessEvent_0:
   \   000263                ; Setup parameters for call to function osal_msg_receive
   \   000263   90....       MOV     DPTR,#SampleApp_TaskID
   \   000266   E0           MOVX    A,@DPTR
   \   000267   F9           MOV     R1,A
   \   000268   12....       LCALL   ??osal_msg_receive?relay
   \   00026B   8A..         MOV     ?V0 + 2,R2
   \   00026D   8B..         MOV     ?V0 + 3,R3
   \   00026F   AE..         MOV     R6,?V0 + 2
   \   000271   AF..         MOV     R7,?V0 + 3
   \   000273   EE           MOV     A,R6
   \   000274   4F           ORL     A,R7
   \   000275   6014         JZ      ??SampleApp_ProcessEvent_6
   \   000277   8E82         MOV     DPL,R6
   \   000279   8F83         MOV     DPH,R7
   \   00027B   E0           MOVX    A,@DPTR
   \   00027C   24E6         ADD     A,#-0x1a
   \   00027E   6006         JZ      ??SampleApp_ProcessEvent_7
   \   000280   2449         ADD     A,#0x49
   \   000282   60B4         JZ      ??SampleApp_ProcessEvent_3
   \   000284   80D6         SJMP    ??SampleApp_ProcessEvent_5
   \                     ??SampleApp_ProcessEvent_7:
   \   000286                ; Setup parameters for call to function SampleApp_ProcessMSGCmd
   \   000286   12....       LCALL   ??SampleApp_ProcessMSGCmd?relay
   \   000289   80D1         SJMP    ??SampleApp_ProcessEvent_5
   \                     ??SampleApp_ProcessEvent_6:
   \   00028B   AA..         MOV     R2,?V0 + 0
   \   00028D   E5..         MOV     A,?V0 + 1
   \   00028F   6480         XRL     A,#0x80
   \   000291   FB           MOV     R3,A
   \   000292   8004         SJMP    ??SampleApp_ProcessEvent_2
    360          
    361          
    362            return ( 0 );  // Discard unknown events.
   \                     ??SampleApp_ProcessEvent_1:
   \   000294   7A00         MOV     R2,#0x0
   \   000296   7B00         MOV     R3,#0x0
   \                     ??SampleApp_ProcessEvent_2:
   \   000298   758280       MOV     DPL,#-0x80
   \   00029B   758301       MOV     DPH,#0x1
   \   00029E   12....       LCALL   ?ADD_XSTACK_DISP0_16
   \   0002A1   7F08         MOV     R7,#0x8
   \   0002A3   02....       LJMP    ?BANKED_LEAVE_XDATA
    363          }

   \                                 In  segment BANKED_CODE, align 1, keep-with-next
   \                     ?Subroutine5:
   \   000000   EE           MOV     A,R6
   \   000001   FA           MOV     R2,A
   \   000002   EF           MOV     A,R7
   \   000003   FB           MOV     R3,A
   \   000004                REQUIRE ??Subroutine6_0
   \   000004                ; // Fall through to label ??Subroutine6_0

   \                                 In  segment BANKED_CODE, align 1, keep-with-next
   \                     ??Subroutine6_0:
   \   000000   12....       LCALL   ??cJSON_AddNumberToObject?relay
   \   000003   7404         MOV     A,#0x4
   \   000005   22           RET

   \                                 In  segment BANKED_CODE, align 1, keep-with-next
   \                     ?Subroutine2:
   \   000000   E0           MOVX    A,@DPTR
   \   000001   F5..         MOV     ?V0 + 4,A
   \   000003   A3           INC     DPTR
   \   000004   E0           MOVX    A,@DPTR
   \   000005   F5..         MOV     ?V0 + 5,A
   \   000007   E4           CLR     A
   \   000008   F5..         MOV     ?V0 + 6,A
   \   00000A   F5..         MOV     ?V0 + 7,A
   \   00000C   78..         MOV     R0,#?V0 + 4
   \   00000E   22           RET

   \                                 In  segment BANKED_CODE, align 1, keep-with-next
   \                     ?Subroutine1:
   \   000000   E0           MOVX    A,@DPTR
   \   000001   F5..         MOV     ?V0 + 4,A
   \   000003   E4           CLR     A
   \   000004   F5..         MOV     ?V0 + 5,A
   \   000006   F5..         MOV     ?V0 + 6,A
   \   000008   F5..         MOV     ?V0 + 7,A
   \   00000A   78..         MOV     R0,#?V0 + 4
   \   00000C   22           RET
    364          
    365          /*********************************************************************
    366           * @fn      SerialApp_ProcessMSGCmd
    367           *
    368           * @brief   Data message processor callback. This function processes
    369           *          any incoming data - probably from other devices. Based
    370           *          on the cluster ID, perform the intended action.
    371           *
    372           * @param   pkt - pointer to the incoming message packet
    373           *
    374           * @return  TRUE if the 'pkt' parameter is being used and will be freed later,
    375           *          FALSE otherwise.
    376           */
    377          
    378          //处理发送过来的数据

   \                                 In  segment BANKED_CODE, align 1, keep-with-next
    379          void SampleApp_ProcessMSGCmd( afIncomingMSGPacket_t *pkt )
   \                     SampleApp_ProcessMSGCmd:
    380          {
   \   000000   74F5         MOV     A,#-0xb
   \   000002   12....       LCALL   ?BANKED_ENTER_XDATA
   \   000005                ; Saved register size: 11
   \   000005                ; Auto size: 0
    381            uint8 buff[128]={0};
                         ^
Warning[Pe177]: variable "buff" was declared but never referenced
    382          
    383            switch ( pkt->clusterId )
   \   000005   8A82         MOV     DPL,R2
   \   000007   8B83         MOV     DPH,R3
   \   000009   A3           INC     DPTR
   \   00000A   A3           INC     DPTR
   \   00000B   A3           INC     DPTR
   \   00000C   A3           INC     DPTR
   \   00000D   E0           MOVX    A,@DPTR
   \   00000E   6401         XRL     A,#0x1
   \   000010   7002         JNZ     ??SampleApp_ProcessMSGCmd_0
   \   000012   A3           INC     DPTR
   \   000013   E0           MOVX    A,@DPTR
   \                     ??SampleApp_ProcessMSGCmd_0:
   \   000014   6003         JZ      $+5
   \   000016   02....       LJMP    ??SampleApp_ProcessMSGCmd_1 & 0xFFFF
    384            {
    385              
    386          #ifdef ZDO_COORDINATOR      
    387            // 接收终端上传的温度数据
    388            case SAMPLEAPP_P2P_CLUSTERID: 
    389              {
    390                  uint8 id=pkt->cmd.Data[0];//终端id
   \   000019   EA           MOV     A,R2
   \   00001A   2422         ADD     A,#0x22
   \   00001C   F582         MOV     DPL,A
   \   00001E   EB           MOV     A,R3
   \   00001F   3400         ADDC    A,#0x0
   \   000021   F583         MOV     DPH,A
   \   000023   E0           MOVX    A,@DPTR
   \   000024   F8           MOV     R0,A
   \   000025   A3           INC     DPTR
   \   000026   E0           MOVX    A,@DPTR
   \   000027   F9           MOV     R1,A
   \   000028   8882         MOV     DPL,R0
   \   00002A   8983         MOV     DPH,R1
   \   00002C   E0           MOVX    A,@DPTR
   \   00002D   FE           MOV     R6,A
    391                  uint8 t=pkt->cmd.Data[1]; //终端温度
   \   00002E   A3           INC     DPTR
   \   00002F   E0           MOVX    A,@DPTR
   \   000030   FF           MOV     R7,A
    392                  uint8 h=pkt->cmd.Data[2]; //终端湿度
   \   000031   8882         MOV     DPL,R0
   \   000033   8983         MOV     DPH,R1
   \   000035   A3           INC     DPTR
   \   000036   A3           INC     DPTR
   \   000037   E0           MOVX    A,@DPTR
   \   000038   F5..         MOV     ?V0 + 0,A
    393                  
    394                  uint8 ll=pkt->cmd.Data[3]; //终端光照数据前半段
    395                  uint8 lh=pkt->cmd.Data[4]; //终端光照数据后半段
    396                  
    397                  uint8 bl=pkt->cmd.Data[5]; //终端电池数据前半段
    398                  uint8 bh=pkt->cmd.Data[6]; //终端电池数据后半段
    399                  
    400                  uint8 bs=pkt->cmd.Data[7]; //终端电池充电状态
   \   00003A   8882         MOV     DPL,R0
   \   00003C   8983         MOV     DPH,R1
   \   00003E   A3           INC     DPTR
   \   00003F   A3           INC     DPTR
   \   000040   A3           INC     DPTR
   \   000041   A3           INC     DPTR
   \   000042   A3           INC     DPTR
   \   000043   A3           INC     DPTR
   \   000044   A3           INC     DPTR
   \   000045   E0           MOVX    A,@DPTR
   \   000046   F5..         MOV     ?V0 + 1,A
    401                  
    402                  uint16 l=ll;    //处理光照数据
    403                  l <<= 8;
    404                  l = l + lh;
   \   000048   8882         MOV     DPL,R0
   \   00004A   8983         MOV     DPH,R1
   \   00004C   12....       LCALL   ?Subroutine3 & 0xFFFF
   \                     ??CrossCallReturnLabel_16:
   \   00004F   E0           MOVX    A,@DPTR
   \   000050   FC           MOV     R4,A
   \   000051   EB           MOV     A,R3
   \   000052   FD           MOV     R5,A
    405                  
    406                  uint16 b=bl;    //处理电量数据
    407                  b <<= 8;
    408                  b = b + bh;     
   \   000053   8882         MOV     DPL,R0
   \   000055   8983         MOV     DPH,R1
   \   000057   A3           INC     DPTR
   \   000058   A3           INC     DPTR
   \   000059   12....       LCALL   ?Subroutine3 & 0xFFFF
   \                     ??CrossCallReturnLabel_17:
   \   00005C   A3           INC     DPTR
   \   00005D   A3           INC     DPTR
   \   00005E   E0           MOVX    A,@DPTR
   \   00005F   F8           MOV     R0,A
   \   000060   EB           MOV     A,R3
   \   000061   F9           MOV     R1,A
    409                  
    410                  if(id==1)
   \   000062   7401         MOV     A,#0x1
   \   000064   6E           XRL     A,R6
   \   000065   7024         JNZ     ??SampleApp_ProcessMSGCmd_2
    411                  {
    412                    //保存终端1的温度,湿度,光照,状态,电量
    413                    temp1Int=t;
   \   000067   EF           MOV     A,R7
   \   000068   90....       MOV     DPTR,#temp1Int
   \   00006B   F0           MOVX    @DPTR,A
    414                    hum1Int=h;
   \   00006C   E5..         MOV     A,?V0 + 0
   \   00006E   90....       MOV     DPTR,#hum1Int
   \   000071   F0           MOVX    @DPTR,A
    415                    light1Int=l;
   \   000072   90....       MOV     DPTR,#light1Int
   \   000075   EC           MOV     A,R4
   \   000076   F0           MOVX    @DPTR,A
   \   000077   A3           INC     DPTR
   \   000078   ED           MOV     A,R5
   \   000079   F0           MOVX    @DPTR,A
    416                    state1Int=1;
   \   00007A   90....       MOV     DPTR,#state1Int
   \   00007D   7401         MOV     A,#0x1
   \   00007F   F0           MOVX    @DPTR,A
    417                    bat1 = b;
   \   000080   90....       MOV     DPTR,#bat1
   \   000083   12....       LCALL   ?Subroutine4 & 0xFFFF
    418                    bat1State = bs;
    419                    
    420                  }
   \                     ??CrossCallReturnLabel_18:
   \   000086   90....       MOV     DPTR,#bat1State
   \   000089   8050         SJMP    ??SampleApp_ProcessMSGCmd_3
    421                  else if(id==2)
   \                     ??SampleApp_ProcessMSGCmd_2:
   \   00008B   7402         MOV     A,#0x2
   \   00008D   6E           XRL     A,R6
   \   00008E   7024         JNZ     ??SampleApp_ProcessMSGCmd_4
    422                  {
    423                    //保存终端2的温度,湿度,光照,状态,电量
    424                    temp2Int=t;
   \   000090   EF           MOV     A,R7
   \   000091   90....       MOV     DPTR,#temp2Int
   \   000094   F0           MOVX    @DPTR,A
    425                    hum2Int=h;
   \   000095   E5..         MOV     A,?V0 + 0
   \   000097   90....       MOV     DPTR,#hum2Int
   \   00009A   F0           MOVX    @DPTR,A
    426                    light2Int=l;
   \   00009B   90....       MOV     DPTR,#light2Int
   \   00009E   EC           MOV     A,R4
   \   00009F   F0           MOVX    @DPTR,A
   \   0000A0   A3           INC     DPTR
   \   0000A1   ED           MOV     A,R5
   \   0000A2   F0           MOVX    @DPTR,A
    427                    state2Int=1;
   \   0000A3   90....       MOV     DPTR,#state2Int
   \   0000A6   7401         MOV     A,#0x1
   \   0000A8   F0           MOVX    @DPTR,A
    428                    bat2 = b;
   \   0000A9   90....       MOV     DPTR,#bat2
   \   0000AC   12....       LCALL   ?Subroutine4 & 0xFFFF
    429                    bat2State = bs;          
    430                    
    431                  }
   \                     ??CrossCallReturnLabel_19:
   \   0000AF   90....       MOV     DPTR,#bat2State
   \   0000B2   8027         SJMP    ??SampleApp_ProcessMSGCmd_3
    432                  else if(id==3)
   \                     ??SampleApp_ProcessMSGCmd_4:
   \   0000B4   7403         MOV     A,#0x3
   \   0000B6   6E           XRL     A,R6
   \   0000B7   7023         JNZ     ??SampleApp_ProcessMSGCmd_1
    433                  {
    434                    //保存终端3的温度,湿度,光照,状态,电量
    435                    temp3Int=t;
   \   0000B9   EF           MOV     A,R7
   \   0000BA   90....       MOV     DPTR,#temp3Int
   \   0000BD   F0           MOVX    @DPTR,A
    436                    hum3Int=h;
   \   0000BE   E5..         MOV     A,?V0 + 0
   \   0000C0   90....       MOV     DPTR,#hum3Int
   \   0000C3   F0           MOVX    @DPTR,A
    437                    light3Int=l;
   \   0000C4   90....       MOV     DPTR,#light3Int
   \   0000C7   EC           MOV     A,R4
   \   0000C8   F0           MOVX    @DPTR,A
   \   0000C9   A3           INC     DPTR
   \   0000CA   ED           MOV     A,R5
   \   0000CB   F0           MOVX    @DPTR,A
    438                    state3Int=1;
   \   0000CC   90....       MOV     DPTR,#state3Int
   \   0000CF   7401         MOV     A,#0x1
   \   0000D1   F0           MOVX    @DPTR,A
    439                    bat3 = b;
   \   0000D2   90....       MOV     DPTR,#bat3
   \   0000D5   12....       LCALL   ?Subroutine4 & 0xFFFF
    440                    bat3State = bs;          
    441                    
    442                  }
    443          
    444              }
    445              break;
    446          #endif
    447              
    448            case SAMPLEAPP_PERIODIC_CLUSTERID:
    449          
    450              break;
    451          
    452              default:
    453                break;
    454            }
   \                     ??CrossCallReturnLabel_20:
   \   0000D8   90....       MOV     DPTR,#bat3State
   \                     ??SampleApp_ProcessMSGCmd_3:
   \   0000DB   F0           MOVX    @DPTR,A
    455          }
   \                     ??SampleApp_ProcessMSGCmd_1:
   \   0000DC   7F03         MOV     R7,#0x3
   \   0000DE   02....       LJMP    ?BANKED_LEAVE_XDATA

   \                                 In  segment BANKED_CODE, align 1, keep-with-next
   \                     ?Subroutine4:
   \   000000   E8           MOV     A,R0
   \   000001   F0           MOVX    @DPTR,A
   \   000002   A3           INC     DPTR
   \   000003   E9           MOV     A,R1
   \   000004   F0           MOVX    @DPTR,A
   \   000005   E5..         MOV     A,?V0 + 1
   \   000007   22           RET

   \                                 In  segment BANKED_CODE, align 1, keep-with-next
   \                     ?Subroutine3:
   \   000000   A3           INC     DPTR
   \   000001   A3           INC     DPTR
   \   000002   A3           INC     DPTR
   \   000003   E0           MOVX    A,@DPTR
   \   000004   FB           MOV     R3,A
   \   000005   8882         MOV     DPL,R0
   \   000007   8983         MOV     DPH,R1
   \   000009   A3           INC     DPTR
   \   00000A   A3           INC     DPTR
   \   00000B   A3           INC     DPTR
   \   00000C   A3           INC     DPTR
   \   00000D   22           RET
    456          
    457          
    458          /*********************************************************************
    459           * @fn      SampleApp_CallBack
    460           *
    461           * @brief   Send data OTA.
    462           *
    463           * @param   port - UART port.
    464           * @param   event - the UART port event flag.
    465           *
    466           * @return  none
    467           */

   \                                 In  segment BANKED_CODE, align 1, keep-with-next
    468          void SampleApp_CallBack(uint8 port, uint8 event)
   \                     SampleApp_CallBack:
    469          {
   \   000000   74F6         MOV     A,#-0xa
   \   000002   12....       LCALL   ?BANKED_ENTER_XDATA
   \   000005                ; Saved register size: 10
   \   000005                ; Auto size: 0
   \   000005   EA           MOV     A,R2
   \   000006   FE           MOV     R6,A
    470            (void)port;
    471          
    472            if ((event & (HAL_UART_RX_FULL | HAL_UART_RX_ABOUT_FULL | HAL_UART_RX_TIMEOUT)) &&
    473          #if SAMPLE_APP_LOOPBACK
    474                (SampleApp_TxLen < SAMPLE_APP_TX_MAX))
    475          #else
    476                !SampleApp_TxLen)
   \   000007   7407         MOV     A,#0x7
   \   000009   5E           ANL     A,R6
   \   00000A   601D         JZ      ??SampleApp_CallBack_0
   \   00000C   90....       MOV     DPTR,#SampleApp_TxLen
   \   00000F   E0           MOVX    A,@DPTR
   \   000010   7017         JNZ     ??SampleApp_CallBack_0
    477          #endif
    478            {
    479              SampleApp_TxLen += HalUARTRead(SAMPLE_APP_PORT, SampleApp_TxBuf+SampleApp_TxLen+1,
    480                                                                SAMPLE_APP_TX_MAX-SampleApp_TxLen);
   \   000012                ; Setup parameters for call to function HalUARTRead
   \   000012   7C50         MOV     R4,#0x50
   \   000014   7D00         MOV     R5,#0x0
   \   000016   7A..         MOV     R2,#(SampleApp_TxBuf + 1) & 0xff
   \   000018   7B..         MOV     R3,#((SampleApp_TxBuf + 1) >> 8) & 0xff
   \   00001A   7900         MOV     R1,#0x0
   \   00001C   12....       LCALL   ??HalUARTRead?relay
   \   00001F   8A..         MOV     ?V0 + 0,R2
   \   000021   A8..         MOV     R0,?V0 + 0
   \   000023   90....       MOV     DPTR,#SampleApp_TxLen
   \   000026   E0           MOVX    A,@DPTR
   \   000027   28           ADD     A,R0
   \   000028   F0           MOVX    @DPTR,A
    481            }
    482          }
   \                     ??SampleApp_CallBack_0:
   \   000029   02....       LJMP    ?Subroutine0 & 0xFFFF

   \                                 In  segment XDATA_ID, align 1, keep-with-next
   \                     `?<Initializer for SampleApp_epDesc>`:
   \   000000   0B           DB 11
   \   000001   ....         DW SampleApp_TaskID
   \   000003   ....         DW SampleApp_SimpleDesc
   \   000005   00           DB 0

   \                                 In  segment BANK_RELAYS, align 1
   \                     ??SampleApp_Init?relay:
   \   000000   12....       LCALL   ?BDISPATCH
   \   000003   ......       DC24    SampleApp_Init

   \                                 In  segment BANK_RELAYS, align 1
   \                     ??SampleApp_ProcessEvent?relay:
   \   000000   12....       LCALL   ?BDISPATCH
   \   000003   ......       DC24    SampleApp_ProcessEvent

   \                                 In  segment BANK_RELAYS, align 1
   \                     ??SampleApp_ProcessMSGCmd?relay:
   \   000000   12....       LCALL   ?BDISPATCH
   \   000003   ......       DC24    SampleApp_ProcessMSGCmd

   \                                 In  segment BANK_RELAYS, align 1
   \                     ??SampleApp_CallBack?relay:
   \   000000   12....       LCALL   ?BDISPATCH
   \   000003   ......       DC24    SampleApp_CallBack

   \                                 In  segment XDATA_ROM_C, align 1
   \                     `?<Constant {0}>`:
   \   000000   00           DB 0
   \   000001   00000000     DB 0, 0, 0, 0, 0, 0, 0, 0
   \            00000000
   \   000009   00000000     DB 0, 0, 0, 0, 0, 0, 0, 0
   \            00000000
   \   000011   00000000     DB 0, 0, 0, 0, 0, 0, 0, 0
   \            00000000
   \   000019   00000000     DB 0, 0, 0, 0, 0, 0, 0, 0
   \            00000000
   \   000021   00000000     DB 0, 0, 0, 0, 0, 0, 0, 0
   \            00000000
   \   000029   00000000     DB 0, 0, 0, 0, 0, 0, 0, 0
   \            00000000
   \   000031   00000000     DB 0, 0, 0, 0, 0, 0, 0, 0
   \            00000000
   \   000039   00000000     DB 0, 0, 0, 0, 0, 0, 0, 0
   \            00000000
   \   000041   00000000     DB 0, 0, 0, 0, 0, 0, 0, 0
   \            00000000
   \   000049   00000000     DB 0, 0, 0, 0, 0, 0, 0, 0
   \            00000000
   \   000051   00000000     DB 0, 0, 0, 0, 0, 0, 0, 0
   \            00000000
   \   000059   00000000     DB 0, 0, 0, 0, 0, 0, 0, 0
   \            00000000
   \   000061   00000000     DB 0, 0, 0, 0, 0, 0, 0, 0
   \            00000000
   \   000069   00000000     DB 0, 0, 0, 0, 0, 0, 0, 0
   \            00000000
   \   000071   00000000     DB 0, 0, 0, 0, 0, 0, 0, 0
   \            00000000
   \   000079   00000000     DB 0, 0, 0, 0, 0, 0, 0, 0
   \            00000000
   \   000081   00000000     DB 0, 0, 0, 0, 0, 0, 0, 0
   \            00000000
   \   000089   00000000     DB 0, 0, 0, 0, 0, 0, 0, 0
   \            00000000
   \   000091   00000000     DB 0, 0, 0, 0, 0, 0, 0, 0
   \            00000000
   \   000099   00000000     DB 0, 0, 0, 0, 0, 0, 0, 0
   \            00000000
   \   0000A1   00000000     DB 0, 0, 0, 0, 0, 0, 0, 0
   \            00000000
   \   0000A9   00000000     DB 0, 0, 0, 0, 0, 0, 0, 0
   \            00000000
   \   0000B1   00000000     DB 0, 0, 0, 0, 0, 0, 0, 0
   \            00000000
   \   0000B9   00000000     DB 0, 0, 0, 0, 0, 0, 0, 0
   \            00000000
   \   0000C1   00000000     DB 0, 0, 0, 0, 0, 0, 0, 0
   \            00000000
   \   0000C9   00000000     DB 0, 0, 0, 0, 0, 0, 0, 0
   \            00000000
   \   0000D1   00000000     DB 0, 0, 0, 0, 0, 0, 0, 0
   \            00000000
   \   0000D9   00000000     DB 0, 0, 0, 0, 0, 0, 0, 0
   \            00000000
   \   0000E1   00000000     DB 0, 0, 0, 0, 0, 0, 0, 0
   \            00000000
   \   0000E9   00000000     DB 0, 0, 0, 0, 0, 0, 0, 0
   \            00000000
   \   0000F1   00000000     DB 0, 0, 0, 0, 0, 0, 0, 0
   \            00000000
   \   0000F9   00000000     DB 0, 0, 0, 0, 0, 0, 0, 0
   \            00000000
   \   000101   00000000     DB 0, 0, 0, 0, 0, 0, 0, 0
   \            00000000
   \   000109   00000000     DB 0, 0, 0, 0, 0, 0, 0, 0
   \            00000000
   \   000111   00000000     DB 0, 0, 0, 0, 0, 0, 0, 0
   \            00000000
   \   000119   00000000     DB 0, 0, 0, 0, 0, 0, 0, 0
   \            00000000
   \   000121   00000000     DB 0, 0, 0, 0, 0, 0, 0, 0
   \            00000000
   \   000129   00000000     DB 0, 0, 0, 0, 0, 0, 0, 0
   \            00000000
   \   000131   00000000     DB 0, 0, 0, 0, 0, 0, 0, 0
   \            00000000
   \   000139   00000000     DB 0, 0, 0, 0, 0, 0, 0, 0
   \            00000000
   \   000141   00000000     DB 0, 0, 0, 0, 0, 0, 0, 0
   \            00000000
   \   000149   00000000     DB 0, 0, 0, 0, 0, 0, 0, 0
   \            00000000
   \   000151   00000000     DB 0, 0, 0, 0, 0, 0, 0, 0
   \            00000000
   \   000159   00000000     DB 0, 0, 0, 0, 0, 0, 0, 0
   \            00000000
   \   000161   00000000     DB 0, 0, 0, 0, 0, 0, 0, 0
   \            00000000
   \   000169   00000000     DB 0, 0, 0, 0, 0, 0, 0, 0
   \            00000000
   \   000171   00000000     DB 0, 0, 0, 0, 0, 0, 0, 0
   \            00000000
   \   000179   00000000     DB 0, 0, 0, 0, 0, 0, 0
   \            000000  

   \                                 In  segment XDATA_ROM_C, align 1
   \                     `?<Constant "tem1">`:
   \   000000   74656D31     DB "tem1"
   \            00      

   \                                 In  segment XDATA_ROM_C, align 1
   \                     `?<Constant "hum1">`:
   \   000000   68756D31     DB "hum1"
   \            00      

   \                                 In  segment XDATA_ROM_C, align 1
   \                     `?<Constant "lux1">`:
   \   000000   6C757831     DB "lux1"
   \            00      

   \                                 In  segment XDATA_ROM_C, align 1
   \                     `?<Constant "bat1">`:
   \   000000   62617431     DB "bat1"
   \            00      

   \                                 In  segment XDATA_ROM_C, align 1
   \                     `?<Constant "state1">`:
   \   000000   73746174     DB "state1"
   \            653100  

   \                                 In  segment XDATA_ROM_C, align 1
   \                     `?<Constant "tem2">`:
   \   000000   74656D32     DB "tem2"
   \            00      

   \                                 In  segment XDATA_ROM_C, align 1
   \                     `?<Constant "hum2">`:
   \   000000   68756D32     DB "hum2"
   \            00      

   \                                 In  segment XDATA_ROM_C, align 1
   \                     `?<Constant "lux2">`:
   \   000000   6C757832     DB "lux2"
   \            00      

   \                                 In  segment XDATA_ROM_C, align 1
   \                     `?<Constant "bat2">`:
   \   000000   62617432     DB "bat2"
   \            00      

   \                                 In  segment XDATA_ROM_C, align 1
   \                     `?<Constant "state2">`:
   \   000000   73746174     DB "state2"
   \            653200  

   \                                 In  segment XDATA_ROM_C, align 1
   \                     `?<Constant "bat2State">`:
   \   000000   62617432     DB "bat2State"
   \            53746174
   \            6500    

   \                                 In  segment XDATA_ROM_C, align 1
   \                     `?<Constant "tem3">`:
   \   000000   74656D33     DB "tem3"
   \            00      

   \                                 In  segment XDATA_ROM_C, align 1
   \                     `?<Constant "hum3">`:
   \   000000   68756D33     DB "hum3"
   \            00      

   \                                 In  segment XDATA_ROM_C, align 1
   \                     `?<Constant "lux3">`:
   \   000000   6C757833     DB "lux3"
   \            00      

   \                                 In  segment XDATA_ROM_C, align 1
   \                     `?<Constant "bat3">`:
   \   000000   62617433     DB "bat3"
   \            00      

   \                                 In  segment XDATA_ROM_C, align 1
   \                     `?<Constant "state3">`:
   \   000000   73746174     DB "state3"
   \            653300  
    483          
    484          /*********************************************************************
    485           * @fn      SampleApp_Send_P2P_Message
    486           *
    487           * @brief   point to point.
    488           *
    489           * @param   none
    490           *
    491           * @return  none
    492           */
    493          //搜集传感器数据及发送函数
    494          void SampleApp_Send_P2P_Message( void )
    495          {
    496            uint8 str[9]={0};
    497            uint8 strTemp[20]={0};
    498            int len=0;
    499          
    500            DHT11();             //获取温湿度
    501            light32 = B_LUX30_GetLux();
    502            light = light32 / 1000;
    503            
    504            bat = Get_ADC();     //获取电量数据
    505            
    506            int batState = Get_P06();     //获取充电池电状态
    507          
    508            str[0] = 2;             //增加一个ID，如果是多个终端就增加这个值
    509            str[1] = wendu;//温度
    510            str[2] = shidu;//湿度
    511            
    512            str[4] = light&0xFF;    //光照数据后8位
    513            light >>= 8;
    514            str[3] = light&0xFF;    //光照数据前8位
    515            
    516            str[6] = bat&0xFF;    //电量数据后8位
    517            bat >>= 8;
    518            str[5] = bat&0xFF;    //电量数据前8位 
    519            
    520            str[7] = batState;    //电池充电状态 
    521          
    522            len=9;
    523          
    524            sprintf(strTemp, "T:%d H:%d L:%u BS:%d", wendu,shidu,light,batState);
                           ^
Warning[Pe167]: argument of type "unsigned char *" is incompatible with
          parameter of type "char *"
    525          
    526            HalUARTWrite(0, strTemp, osal_strlen(strTemp));           //串口输出提示信息
                                                        ^
Warning[Pe167]: argument of type "unsigned char *" is incompatible with
          parameter of type "char *"

  static afAddrType_t SampleApp_TxAddr;
                      ^
"C:\Users\蕾雅\Desktop\stm32\ZStack-2.5.1a\Projects\zstack\Samples\SampleApp\Source\SampleApp.c",133  Warning[Pe177]: 
          variable "SampleApp_TxAddr" was declared but never referenced

  static uint8 SampleApp_TxSeq;
               ^
"C:\Users\蕾雅\Desktop\stm32\ZStack-2.5.1a\Projects\zstack\Samples\SampleApp\Source\SampleApp.c",134  Warning[Pe177]: 
          variable "SampleApp_TxSeq" was declared but never referenced

  static afAddrType_t SampleApp_RxAddr;
                      ^
"C:\Users\蕾雅\Desktop\stm32\ZStack-2.5.1a\Projects\zstack\Samples\SampleApp\Source\SampleApp.c",138  Warning[Pe177]: 
          variable "SampleApp_RxAddr" was declared but never referenced

  static uint8 SampleApp_RxSeq;
               ^
"C:\Users\蕾雅\Desktop\stm32\ZStack-2.5.1a\Projects\zstack\Samples\SampleApp\Source\SampleApp.c",139  Warning[Pe550]: 
          variable "SampleApp_RxSeq" was set but never used

  static uint8 SampleApp_RspBuf[SAMPLE_APP_RSP_CNT];
               ^
"C:\Users\蕾雅\Desktop\stm32\ZStack-2.5.1a\Projects\zstack\Samples\SampleApp\Source\SampleApp.c",140  Warning[Pe177]: 
          variable "SampleApp_RspBuf" was declared but never referenced

  void SampleApp_Send_P2P_Message( void )
       ^
"C:\Users\蕾雅\Desktop\stm32\ZStack-2.5.1a\Projects\zstack\Samples\SampleApp\Source\SampleApp.c",494  Warning[Pe177]: 
          function "SampleApp_Send_P2P_Message" was declared but never
          referenced
    527            HalUARTWrite(0, "\r\n",2);
    528          
    529            //无线发送到协调器
    530            if ( AF_DataRequest( &SampleApp_P2P_DstAddr, &SampleApp_epDesc,
    531                                 SAMPLEAPP_P2P_CLUSTERID,
    532                                 len,
    533                                 str,
    534                                 &SampleApp_MsgID,
    535                                 AF_DISCV_ROUTE,
    536                                 AF_DEFAULT_RADIUS ) == afStatus_SUCCESS )
    537            {
    538            }
    539            else
    540            {
    541              // Error occurred in request to send.
    542            }
    543          }

   Maximum stack usage in bytes:

     Function                     ISTACK PSTACK XSTACK
     --------                     ------ ------ ------
     SampleApp_CallBack               0      0     10
       -> HalUARTRead                 0      0     20
     SampleApp_Init                   0      0     10
       -> MT_UartInit                 0      0     20
       -> MT_UartRegisterTaskID       0      0     20
       -> afRegister                  0      0     20
       -> RegisterForKeys             0      0     20
       -> Init_ADC0                   0      0     20
       -> Init_P06                    0      0     20
     SampleApp_ProcessEvent           2      0    404
       -> cJSON_CreateObject          0      0    800
       -> cJSON_AddNumberToObject     0      0    808
       -> cJSON_AddNumberToObject     0      0    808
       -> cJSON_AddNumberToObject     0      0    808
       -> cJSON_AddNumberToObject     0      0    808
       -> cJSON_AddNumberToObject     0      0    808
       -> cJSON_AddNumberToObject     0      0    808
       -> cJSON_AddNumberToObject     0      0    808
       -> cJSON_AddNumberToObject     0      0    808
       -> cJSON_AddNumberToObject     0      0    808
       -> cJSON_AddNumberToObject     0      0    808
       -> cJSON_AddNumberToObject     0      0    808
       -> cJSON_AddNumberToObject     0      0    808
       -> cJSON_AddNumberToObject     0      0    808
       -> cJSON_AddNumberToObject     0      0    808
       -> cJSON_AddNumberToObject     0      0    808
       -> cJSON_AddNumberToObject     0      0    808
       -> cJSON_Print                 0      0    800
       -> sprintf                     0      0    800
       -> osal_strlen                 0      0    800
       -> HalUARTWrite                0      0    800
       -> cJSON_Delete                0      0    800
       -> osal_mem_free               0      0    800
       -> osal_rand                   0      0    800
       -> osal_start_timerEx          0      0    800
       -> osal_start_timerEx          0      0    800
       -> osal_msg_deallocate         0      0    800
       -> osal_msg_receive            0      0    800
       -> SampleApp_ProcessMSGCmd     0      0    800
     SampleApp_ProcessMSGCmd          0      0    411


   Segment part sizes:

     Function/Label                      Bytes
     --------------                      -----
     SampleApp_ClusterList                  4
     SampleApp_SimpleDesc                  12
     SampleApp_epDesc                       6
     SampleApp_NwkState                     1
     SampleApp_TaskID                       1
     SampleApp_Periodic_DstAddr            12
     SampleApp_Flash_DstAddr               12
     SampleApp_P2P_DstAddr                 12
     SampleApp_TxBuf                       81
     SampleApp_TxLen                        1
     SampleApp_RxSeq                        1
     temp1Int                               1
     temp2Int                               1
     temp3Int                               1
     hum1Int                                1
     hum2Int                                1
     hum3Int                                1
     light1Int                              2
     light2Int                              2
     light3Int                              2
     light32                                4
     light                                  2
     state1Int                              1
     state2Int                              1
     state3Int                              1
     bat1                                   2
     bat2                                   2
     bat3                                   2
     bat                                    2
     bat1State                              1
     bat2State                              1
     bat3State                              1
     str                                    2
     SampleApp_Init                       107
     ?Subroutine0                           5
     SampleApp_ProcessEvent               678
     ?Subroutine5                           4
     ??Subroutine6_0                        6
     ?Subroutine2                          15
     ?Subroutine1                          13
     SampleApp_ProcessMSGCmd              225
     ?Subroutine4                           8
     ?Subroutine3                          14
     SampleApp_CallBack                    44
     ?<Initializer for SampleApp_epDesc>    6
     ??SampleApp_Init?relay                 6
     ??SampleApp_ProcessEvent?relay         6
     ??SampleApp_ProcessMSGCmd?relay        6
     ??SampleApp_CallBack?relay             6
     ?<Constant {0}>                      384
     ?<Constant "tem1">                     5
     ?<Constant "hum1">                     5
     ?<Constant "lux1">                     5
     ?<Constant "bat1">                     5
     ?<Constant "state1">                   7
     ?<Constant "tem2">                     5
     ?<Constant "hum2">                     5
     ?<Constant "lux2">                     5
     ?<Constant "bat2">                     5
     ?<Constant "state2">                   7
     ?<Constant "bat2State">               10
     ?<Constant "tem3">                     5
     ?<Constant "hum3">                     5
     ?<Constant "lux3">                     5
     ?<Constant "bat3">                     5
     ?<Constant "state3">                   7

 
 1 119 bytes in segment BANKED_CODE
    24 bytes in segment BANK_RELAYS
     6 bytes in segment XDATA_I
     6 bytes in segment XDATA_ID
   491 bytes in segment XDATA_ROM_C
   155 bytes in segment XDATA_Z
 
 1 149 bytes of CODE  memory
   491 bytes of CONST memory
   161 bytes of XDATA memory

Errors: none
Warnings: 14
