///////////////////////////////////////////////////////////////////////////////
//                                                                            /
// IAR C/C++ Compiler V8.10.3.10338/W32 for 8051        05/May/2023  21:22:17 /
// Copyright 2004-2011 IAR Systems AB.                                        /
//                                                                            /
//    Core               =  plain                                             /
//    Code model         =  banked                                            /
//    Data model         =  large                                             /
//    Calling convention =  xdata reentrant                                   /
//    Constant location  =  data_rom                                          /
//    Dptr setup         =  1,16                                              /
//    Source file        =  C:\Users\蕾雅\Desktop\stm32\ZStack-2.5.1a\Project /
//                          s\zstack\Samples\SampleApp\Source\B_LUX_V30.c     /
//    Command line       =  -f C:\Users\蕾雅\Desktop\stm32\ZStack-2.5.1a\Proj /
//                          ects\zstack\Samples\SampleApp\CC2530DB\..\..\..\T /
//                          ools\CC2530DB\f8wEndev.cfg (-DCPU32MHZ            /
//                          -DROOT=__near_func -DMAC_CFG_TX_DATA_MAX=3        /
//                          -DMAC_CFG_TX_MAX=6 -DMAC_CFG_RX_MAX=3) -f         /
//                          C:\Users\蕾雅\Desktop\stm32\ZStack-2.5.1a\Project /
//                          s\zstack\Samples\SampleApp\CC2530DB\..\..\..\Tool /
//                          s\CC2530DB\f8wConfig.cfg (-DZIGBEEPRO -DSECURE=0  /
//                          -DZG_SECURE_DYNAMIC=0 -DREFLECTOR                 /
//                          -DDEFAULT_CHANLIST=0x00000800                     /
//                          -DZDAPP_CONFIG_PAN_ID=0xFFF1                      /
//                          -DNWK_START_DELAY=100 -DEXTENDED_JOINING_RANDOM_M /
//                          ASK=0x007F -DBEACON_REQUEST_DELAY=100             /
//                          -DBEACON_REQ_DELAY_MASK=0x00FF                    /
//                          -DLINK_STATUS_JITTER_MASK=0x007F                  /
//                          -DROUTE_EXPIRY_TIME=30 -DAPSC_ACK_WAIT_DURATION_P /
//                          OLLED=3000 -DNWK_INDIRECT_MSG_TIMEOUT=7           /
//                          -DMAX_RREQ_ENTRIES=8 -DAPSC_MAX_FRAME_RETRIES=3   /
//                          -DNWK_MAX_DATA_RETRIES=2                          /
//                          -DMAX_POLL_FAILURE_RETRIES=2 -DMAX_BCAST=9        /
//                          -DAPS_MAX_GROUPS=16 -DMAX_RTG_ENTRIES=40          /
//                          -DNWK_MAX_BINDING_ENTRIES=4                       /
//                          -DMAX_BINDING_CLUSTER_IDS=4                       /
//                          "-DDEFAULT_KEY={0x01, 0x03, 0x05, 0x07, 0x09,     /
//                          0x0B, 0x0D, 0x0F, 0x00, 0x02, 0x04, 0x06, 0x08,   /
//                          0x0A, 0x0C, 0x0D}" -DMAC_MAX_FRAME_SIZE=116       /
//                          -DZDNWKMGR_MIN_TRANSMISSIONS=20 "-DCONST=const    /
//                          __code" -DGENERIC=__generic                       /
//                          -DRFD_RCVC_ALWAYS_ON=FALSE -DPOLL_RATE=1000       /
//                          -DQUEUED_POLL_RATE=100 -DRESPONSE_POLL_RATE=100)  /
//                          -DREJOIN_POLL_RATE=440 C:\Users\蕾雅\Desktop\stm3 /
//                          2\ZStack-2.5.1a\Projects\zstack\Samples\SampleApp /
//                          \Source\B_LUX_V30.c -D NWK_AUTO_POLL -D ZTOOL_P1  /
//                          -D MT_TASK -D MT_SYS_FUNC -D MT_ZDO_FUNC -D       /
//                          LCD_SUPPORTED=DEBUG -lC                           /
//                          C:\Users\蕾雅\Desktop\stm32\ZStack-2.5.1a\Project /
//                          s\zstack\Samples\SampleApp\CC2530DB\EndDeviceEB\L /
//                          ist\ -lA C:\Users\蕾雅\Desktop\stm32\ZStack-2.5.1 /
//                          a\Projects\zstack\Samples\SampleApp\CC2530DB\EndD /
//                          eviceEB\List\ --diag_suppress Pe001,Pa010 -o      /
//                          C:\Users\蕾雅\Desktop\stm32\ZStack-2.5.1a\Project /
//                          s\zstack\Samples\SampleApp\CC2530DB\EndDeviceEB\O /
//                          bj\ -e --no_code_motion --debug --core=plain      /
//                          --dptr=16,1 --data_model=large                    /
//                          --code_model=banked --calling_convention=xdata_re /
//                          entrant --place_constants=data_rom                /
//                          --nr_virtual_regs 16 -I                           /
//                          C:\Users\蕾雅\Desktop\stm32\ZStack-2.5.1a\Project /
//                          s\zstack\Samples\SampleApp\CC2530DB\ -I           /
//                          C:\Users\蕾雅\Desktop\stm32\ZStack-2.5.1a\Project /
//                          s\zstack\Samples\SampleApp\CC2530DB\..\Source\    /
//                          -I C:\Users\蕾雅\Desktop\stm32\ZStack-2.5.1a\Proj /
//                          ects\zstack\Samples\SampleApp\CC2530DB\..\..\..\Z /
//                          Main\TI2530DB\ -I C:\Users\蕾雅\Desktop\stm32\ZSt /
//                          ack-2.5.1a\Projects\zstack\Samples\SampleApp\CC25 /
//                          30DB\..\..\..\..\..\Components\hal\include\ -I    /
//                          C:\Users\蕾雅\Desktop\stm32\ZStack-2.5.1a\Project /
//                          s\zstack\Samples\SampleApp\CC2530DB\..\..\..\..\. /
//                          .\Components\hal\target\CC2530EB\ -I              /
//                          C:\Users\蕾雅\Desktop\stm32\ZStack-2.5.1a\Project /
//                          s\zstack\Samples\SampleApp\CC2530DB\..\..\..\..\. /
//                          .\Components\mac\include\ -I                      /
//                          C:\Users\蕾雅\Desktop\stm32\ZStack-2.5.1a\Project /
//                          s\zstack\Samples\SampleApp\CC2530DB\..\..\..\..\. /
//                          .\Components\mac\high_level\ -I                   /
//                          C:\Users\蕾雅\Desktop\stm32\ZStack-2.5.1a\Project /
//                          s\zstack\Samples\SampleApp\CC2530DB\..\..\..\..\. /
//                          .\Components\mac\low_level\srf04\ -I              /
//                          C:\Users\蕾雅\Desktop\stm32\ZStack-2.5.1a\Project /
//                          s\zstack\Samples\SampleApp\CC2530DB\..\..\..\..\. /
//                          .\Components\mac\low_level\srf04\single_chip\ -I  /
//                          C:\Users\蕾雅\Desktop\stm32\ZStack-2.5.1a\Project /
//                          s\zstack\Samples\SampleApp\CC2530DB\..\..\..\..\. /
//                          .\Components\mt\ -I C:\Users\蕾雅\Desktop\stm32\Z /
//                          Stack-2.5.1a\Projects\zstack\Samples\SampleApp\CC /
//                          2530DB\..\..\..\..\..\Components\osal\include\    /
//                          -I C:\Users\蕾雅\Desktop\stm32\ZStack-2.5.1a\Proj /
//                          ects\zstack\Samples\SampleApp\CC2530DB\..\..\..\. /
//                          .\..\Components\services\saddr\ -I                /
//                          C:\Users\蕾雅\Desktop\stm32\ZStack-2.5.1a\Project /
//                          s\zstack\Samples\SampleApp\CC2530DB\..\..\..\..\. /
//                          .\Components\services\sdata\ -I                   /
//                          C:\Users\蕾雅\Desktop\stm32\ZStack-2.5.1a\Project /
//                          s\zstack\Samples\SampleApp\CC2530DB\..\..\..\..\. /
//                          .\Components\stack\af\ -I                         /
//                          C:\Users\蕾雅\Desktop\stm32\ZStack-2.5.1a\Project /
//                          s\zstack\Samples\SampleApp\CC2530DB\..\..\..\..\. /
//                          .\Components\stack\nwk\ -I                        /
//                          C:\Users\蕾雅\Desktop\stm32\ZStack-2.5.1a\Project /
//                          s\zstack\Samples\SampleApp\CC2530DB\..\..\..\..\. /
//                          .\Components\stack\sapi\ -I                       /
//                          C:\Users\蕾雅\Desktop\stm32\ZStack-2.5.1a\Project /
//                          s\zstack\Samples\SampleApp\CC2530DB\..\..\..\..\. /
//                          .\Components\stack\sec\ -I                        /
//                          C:\Users\蕾雅\Desktop\stm32\ZStack-2.5.1a\Project /
//                          s\zstack\Samples\SampleApp\CC2530DB\..\..\..\..\. /
//                          .\Components\stack\sys\ -I                        /
//                          C:\Users\蕾雅\Desktop\stm32\ZStack-2.5.1a\Project /
//                          s\zstack\Samples\SampleApp\CC2530DB\..\..\..\..\. /
//                          .\Components\stack\zdo\ -I                        /
//                          C:\Users\蕾雅\Desktop\stm32\ZStack-2.5.1a\Project /
//                          s\zstack\Samples\SampleApp\CC2530DB\..\..\..\..\. /
//                          .\Components\zmac\ -I C:\Users\蕾雅\Desktop\stm32 /
//                          \ZStack-2.5.1a\Projects\zstack\Samples\SampleApp\ /
//                          CC2530DB\..\..\..\..\..\Components\zmac\f8w\ -Ohz /
//    List file          =  C:\Users\蕾雅\Desktop\stm32\ZStack-2.5.1a\Project /
//                          s\zstack\Samples\SampleApp\CC2530DB\EndDeviceEB\L /
//                          ist\B_LUX_V30.s51                                 /
//                                                                            /
//                                                                            /
///////////////////////////////////////////////////////////////////////////////

        NAME B_LUX_V30

        RTMODEL "__SystemLibrary", "CLib"
        RTMODEL "__calling_convention", "xdata_reentrant"
        RTMODEL "__code_model", "banked"
        RTMODEL "__core", "plain"
        RTMODEL "__data_model", "large"
        RTMODEL "__dptr_size", "16"
        RTMODEL "__extended_stack", "disabled"
        RTMODEL "__location_for_constants", "data"
        RTMODEL "__number_of_dptrs", "1"
        RTMODEL "__rt_version", "1"

        RSEG DOVERLAY:DATA:NOROOT(0)
        RSEG IOVERLAY:IDATA:NOROOT(0)
        RSEG ISTACK:IDATA:NOROOT(0)
        RSEG PSTACK:XDATA:NOROOT(0)
        RSEG XSTACK:XDATA:NOROOT(0)

        EXTERN ?BANKED_ENTER_XDATA
        EXTERN ?BANKED_LEAVE_XDATA
        EXTERN ?BDISPATCH
        EXTERN ?BRET
        EXTERN ?FLT_MUL
        EXTERN ?FLT_TO_UL
        EXTERN ?L_IOR
        EXTERN ?L_MOV_TO_X
        EXTERN ?L_MOV_X
        EXTERN ?L_SHL
        EXTERN ?UL_TO_FLT
        EXTERN ?V0
        EXTERN __INIT_XDATA_Z

        PUBLIC ??B_LUX30_Delay5ms?relay
        FUNCTION ??B_LUX30_Delay5ms?relay,0203H
        PUBLIC ??B_LUX30_Delay5us?relay
        FUNCTION ??B_LUX30_Delay5us?relay,0203H
        PUBLIC ??B_LUX30_GetLux?relay
        FUNCTION ??B_LUX30_GetLux?relay,0203H
        PUBLIC ??B_LUX30_Init?relay
        FUNCTION ??B_LUX30_Init?relay,0203H
        PUBLIC ??B_LUX30_Multiple_Write?relay
        FUNCTION ??B_LUX30_Multiple_Write?relay,0203H
        PUBLIC ??B_LUX30_Multiple_read?relay
        FUNCTION ??B_LUX30_Multiple_read?relay,0203H
        PUBLIC ??B_LUX30_RecvACK?relay
        FUNCTION ??B_LUX30_RecvACK?relay,0203H
        PUBLIC ??B_LUX30_RecvByte?relay
        FUNCTION ??B_LUX30_RecvByte?relay,0203H
        PUBLIC ??B_LUX30_SendACK?relay
        FUNCTION ??B_LUX30_SendACK?relay,0203H
        PUBLIC ??B_LUX30_SendByte?relay
        FUNCTION ??B_LUX30_SendByte?relay,0203H
        PUBLIC ??B_LUX30_Start?relay
        FUNCTION ??B_LUX30_Start?relay,0203H
        PUBLIC ??B_LUX30_Stop?relay
        FUNCTION ??B_LUX30_Stop?relay,0203H
        PUBLIC ??B_LUX30_delay_nms?relay
        FUNCTION ??B_LUX30_delay_nms?relay,0203H
        PUBLIC B_LUX30_Delay5ms
        FUNCTION B_LUX30_Delay5ms,0203H
        ARGFRAME XSTACK, 0, STACK
        PUBLIC B_LUX30_Delay5us
        FUNCTION B_LUX30_Delay5us,0203H
        ARGFRAME XSTACK, 9, STACK
        ARGFRAME IOVERLAY, 0, STATIC
        ARGFRAME DOVERLAY, 0, STATIC
        PUBLIC B_LUX30_GetLux
        FUNCTION B_LUX30_GetLux,021201H
        ARGFRAME XSTACK, 0, STACK
        LOCFRAME ISTACK, 1, STACK
        LOCFRAME XSTACK, 16, STACK
        PUBLIC B_LUX30_Init
        FUNCTION B_LUX30_Init,0203H
        ARGFRAME XSTACK, 0, STACK
        PUBLIC B_LUX30_Multiple_Write
        FUNCTION B_LUX30_Multiple_Write,021203H
        ARGFRAME XSTACK, 0, STACK
        LOCFRAME XSTACK, 13, STACK
        PUBLIC B_LUX30_Multiple_read
        FUNCTION B_LUX30_Multiple_read,021203H
        ARGFRAME XSTACK, 0, STACK
        LOCFRAME ISTACK, 1, STACK
        LOCFRAME XSTACK, 13, STACK
        PUBLIC B_LUX30_RecvACK
        FUNCTION B_LUX30_RecvACK,021203H
        ARGFRAME XSTACK, 9, STACK
        ARGFRAME IOVERLAY, 0, STATIC
        ARGFRAME DOVERLAY, 0, STATIC
        LOCFRAME XSTACK, 9, STACK
        PUBLIC B_LUX30_RecvByte
        FUNCTION B_LUX30_RecvByte,021203H
        ARGFRAME XSTACK, 16, STACK
        ARGFRAME IOVERLAY, 0, STATIC
        ARGFRAME DOVERLAY, 0, STATIC
        LOCFRAME XSTACK, 9, STACK
        PUBLIC B_LUX30_SendACK
        FUNCTION B_LUX30_SendACK,021203H
        ARGFRAME XSTACK, 16, STACK
        ARGFRAME IOVERLAY, 0, STATIC
        ARGFRAME DOVERLAY, 0, STATIC
        LOCFRAME XSTACK, 9, STACK
        PUBLIC B_LUX30_SendByte
        FUNCTION B_LUX30_SendByte,021203H
        ARGFRAME XSTACK, 16, STACK
        ARGFRAME IOVERLAY, 0, STATIC
        ARGFRAME DOVERLAY, 0, STATIC
        LOCFRAME XSTACK, 9, STACK
        PUBLIC B_LUX30_Start
        FUNCTION B_LUX30_Start,021203H
        ARGFRAME XSTACK, 16, STACK
        ARGFRAME IOVERLAY, 0, STATIC
        ARGFRAME DOVERLAY, 0, STATIC
        LOCFRAME ISTACK, 2, STACK
        PUBLIC B_LUX30_Stop
        FUNCTION B_LUX30_Stop,021203H
        ARGFRAME XSTACK, 16, STACK
        ARGFRAME IOVERLAY, 0, STATIC
        ARGFRAME DOVERLAY, 0, STATIC
        LOCFRAME ISTACK, 2, STACK
        PUBLIC B_LUX30_delay_nms
        FUNCTION B_LUX30_delay_nms,0203H
        ARGFRAME XSTACK, 16, STACK
        ARGFRAME IOVERLAY, 0, STATIC
        ARGFRAME DOVERLAY, 0, STATIC
        PUBWEAK P1DIR
        PUBWEAK P1SEL
        PUBWEAK _A_P1
        PUBWEAK __Constant_3fb33333
        PUBLIC m_BUF
        PUBLIC m_lightlux
        
        CFI Names cfiNames0
        CFI StackFrame CFA_SP SP IDATA
        CFI StackFrame CFA_PSP16 PSP16 XDATA
        CFI StackFrame CFA_XSP16 XSP16 XDATA
        CFI StaticOverlayFrame CFA_IOVERLAY IOVERLAY
        CFI StaticOverlayFrame CFA_DOVERLAY DOVERLAY
        CFI Resource `PSW.CY`:1, `B.BR0`:1, `B.BR1`:1, `B.BR2`:1, `B.BR3`:1
        CFI Resource `B.BR4`:1, `B.BR5`:1, `B.BR6`:1, `B.BR7`:1, `VB.BR8`:1
        CFI Resource `VB.BR9`:1, `VB.BR10`:1, `VB.BR11`:1, `VB.BR12`:1
        CFI Resource `VB.BR13`:1, `VB.BR14`:1, `VB.BR15`:1, VB:8, B:8, A:8
        CFI Resource PSW:8, DPL0:8, DPH0:8, R0:8, R1:8, R2:8, R3:8, R4:8, R5:8
        CFI Resource R6:8, R7:8, V0:8, V1:8, V2:8, V3:8, V4:8, V5:8, V6:8, V7:8
        CFI Resource V8:8, V9:8, V10:8, V11:8, V12:8, V13:8, V14:8, V15:8, SP:8
        CFI Resource PSPH:8, PSPL:8, PSP16:16, XSPH:8, XSPL:8, XSP16:16
        CFI VirtualResource ?RET:24
        CFI Resource ?BRET_EXT:8
        CFI VirtualResource ?RET_HIGH:8, ?RET_LOW:8
        CFI ResourceParts PSP16 PSPH, PSPL
        CFI ResourceParts XSP16 XSPH, XSPL
        CFI ResourceParts ?RET ?BRET_EXT, ?RET_HIGH, ?RET_LOW
        CFI EndNames cfiNames0
        
        CFI Common cfiCommon0 Using cfiNames0
        CFI CodeAlign 1
        CFI DataAlign -1
        CFI ReturnAddress ?RET CODE
        CFI CFA_DOVERLAY Used
        CFI CFA_IOVERLAY Used
        CFI CFA_SP SP+-3
        CFI CFA_PSP16 PSP16+0
        CFI CFA_XSP16 XSP16+0
        CFI `PSW.CY` SameValue
        CFI `B.BR0` SameValue
        CFI `B.BR1` SameValue
        CFI `B.BR2` SameValue
        CFI `B.BR3` SameValue
        CFI `B.BR4` SameValue
        CFI `B.BR5` SameValue
        CFI `B.BR6` SameValue
        CFI `B.BR7` SameValue
        CFI `VB.BR8` SameValue
        CFI `VB.BR9` SameValue
        CFI `VB.BR10` SameValue
        CFI `VB.BR11` SameValue
        CFI `VB.BR12` SameValue
        CFI `VB.BR13` SameValue
        CFI `VB.BR14` SameValue
        CFI `VB.BR15` SameValue
        CFI VB SameValue
        CFI B Undefined
        CFI A Undefined
        CFI PSW SameValue
        CFI DPL0 SameValue
        CFI DPH0 SameValue
        CFI R0 Undefined
        CFI R1 Undefined
        CFI R2 Undefined
        CFI R3 Undefined
        CFI R4 Undefined
        CFI R5 Undefined
        CFI R6 SameValue
        CFI R7 SameValue
        CFI V0 SameValue
        CFI V1 SameValue
        CFI V2 SameValue
        CFI V3 SameValue
        CFI V4 SameValue
        CFI V5 SameValue
        CFI V6 SameValue
        CFI V7 SameValue
        CFI V8 SameValue
        CFI V9 SameValue
        CFI V10 SameValue
        CFI V11 SameValue
        CFI V12 SameValue
        CFI V13 SameValue
        CFI V14 SameValue
        CFI V15 SameValue
        CFI PSPH Undefined
        CFI PSPL Undefined
        CFI XSPH Undefined
        CFI XSPL Undefined
        CFI ?RET Concat
        CFI ?BRET_EXT Frame(CFA_SP, 3)
        CFI ?RET_HIGH Frame(CFA_SP, 2)
        CFI ?RET_LOW Frame(CFA_SP, 1)
        CFI EndCommon cfiCommon0
        
        
        CFI Common cfiCommon1 Using cfiNames0
        CFI CodeAlign 1
        CFI DataAlign -1
        CFI ReturnAddress ?RET CODE
        CFI CFA_DOVERLAY Used
        CFI CFA_IOVERLAY Used
        CFI CFA_SP SP+-2
        CFI CFA_PSP16 PSP16+0
        CFI CFA_XSP16 XSP16+0
        CFI `PSW.CY` SameValue
        CFI `B.BR0` SameValue
        CFI `B.BR1` SameValue
        CFI `B.BR2` SameValue
        CFI `B.BR3` SameValue
        CFI `B.BR4` SameValue
        CFI `B.BR5` SameValue
        CFI `B.BR6` SameValue
        CFI `B.BR7` SameValue
        CFI `VB.BR8` SameValue
        CFI `VB.BR9` SameValue
        CFI `VB.BR10` SameValue
        CFI `VB.BR11` SameValue
        CFI `VB.BR12` SameValue
        CFI `VB.BR13` SameValue
        CFI `VB.BR14` SameValue
        CFI `VB.BR15` SameValue
        CFI VB SameValue
        CFI B SameValue
        CFI A SameValue
        CFI PSW SameValue
        CFI DPL0 SameValue
        CFI DPH0 SameValue
        CFI R0 SameValue
        CFI R1 SameValue
        CFI R2 SameValue
        CFI R3 SameValue
        CFI R4 SameValue
        CFI R5 SameValue
        CFI R6 SameValue
        CFI R7 SameValue
        CFI V0 SameValue
        CFI V1 SameValue
        CFI V2 SameValue
        CFI V3 SameValue
        CFI V4 SameValue
        CFI V5 SameValue
        CFI V6 SameValue
        CFI V7 SameValue
        CFI V8 SameValue
        CFI V9 SameValue
        CFI V10 SameValue
        CFI V11 SameValue
        CFI V12 SameValue
        CFI V13 SameValue
        CFI V14 SameValue
        CFI V15 SameValue
        CFI PSPH Undefined
        CFI PSPL Undefined
        CFI XSPH Undefined
        CFI XSPL Undefined
        CFI ?RET Concat
        CFI ?BRET_EXT SameValue
        CFI ?RET_HIGH Frame(CFA_SP, 2)
        CFI ?RET_LOW Frame(CFA_SP, 1)
        CFI EndCommon cfiCommon1
        
B_LUX30_Delay5ms    SYMBOL "B_LUX30_Delay5ms"
??B_LUX30_Delay5ms?relay SYMBOL "?relay", B_LUX30_Delay5ms
B_LUX30_Delay5us    SYMBOL "B_LUX30_Delay5us"
??B_LUX30_Delay5us?relay SYMBOL "?relay", B_LUX30_Delay5us
B_LUX30_GetLux      SYMBOL "B_LUX30_GetLux"
??B_LUX30_GetLux?relay SYMBOL "?relay", B_LUX30_GetLux
B_LUX30_Init        SYMBOL "B_LUX30_Init"
??B_LUX30_Init?relay SYMBOL "?relay", B_LUX30_Init
B_LUX30_Multiple_Write SYMBOL "B_LUX30_Multiple_Write"
??B_LUX30_Multiple_Write?relay SYMBOL "?relay", B_LUX30_Multiple_Write
B_LUX30_Multiple_read SYMBOL "B_LUX30_Multiple_read"
??B_LUX30_Multiple_read?relay SYMBOL "?relay", B_LUX30_Multiple_read
B_LUX30_RecvACK     SYMBOL "B_LUX30_RecvACK"
??B_LUX30_RecvACK?relay SYMBOL "?relay", B_LUX30_RecvACK
B_LUX30_RecvByte    SYMBOL "B_LUX30_RecvByte"
??B_LUX30_RecvByte?relay SYMBOL "?relay", B_LUX30_RecvByte
B_LUX30_SendACK     SYMBOL "B_LUX30_SendACK"
??B_LUX30_SendACK?relay SYMBOL "?relay", B_LUX30_SendACK
B_LUX30_SendByte    SYMBOL "B_LUX30_SendByte"
??B_LUX30_SendByte?relay SYMBOL "?relay", B_LUX30_SendByte
B_LUX30_Start       SYMBOL "B_LUX30_Start"
??B_LUX30_Start?relay SYMBOL "?relay", B_LUX30_Start
B_LUX30_Stop        SYMBOL "B_LUX30_Stop"
??B_LUX30_Stop?relay SYMBOL "?relay", B_LUX30_Stop
B_LUX30_delay_nms   SYMBOL "B_LUX30_delay_nms"
??B_LUX30_delay_nms?relay SYMBOL "?relay", B_LUX30_delay_nms

// C:\Users\蕾雅\Desktop\stm32\ZStack-2.5.1a\Projects\zstack\Samples\SampleApp\Source\B_LUX_V30.c
//    1 //***************************************
//    2 // B_LUX30_V30采集程序
//    3 //****************************************
//    4 
//    5 #include "B_LUX_V30.h"

        ASEGN SFR_AN:DATA:NOROOT,090H
// union <unnamed> volatile __sfr _A_P1
_A_P1:
        DATA8
        DS 1

        ASEGN SFR_AN:DATA:NOROOT,0f4H
// unsigned char volatile __sfr P1SEL
P1SEL:
        DATA8
        DS 1

        ASEGN SFR_AN:DATA:NOROOT,0feH
// unsigned char volatile __sfr P1DIR
P1DIR:
        DATA8
        DS 1
//    6 

        RSEG XDATA_Z:XDATA:NOROOT(0)
        DATA8
//    7 uint8    m_BUF[129];                       //接收数据缓存区      	
m_BUF:
        DS 129
        REQUIRE __INIT_XDATA_Z

        RSEG XDATA_Z:XDATA:NOROOT(0)
        DATA32
//    8 uint32   m_lightlux;                       //变量
m_lightlux:
        DS 4
        REQUIRE __INIT_XDATA_Z
//    9 
//   10 
//   11 /*---------------------------------------------------------------------
//   12  功能描述: 延时纳秒 不同的工作环境,需要调整此函数
//   13  参数说明: 无	
//   14  函数返回: 无
//   15  ---------------------------------------------------------------------*/

        RSEG BANKED_CODE:CODE:NOROOT(0)
//   16 void B_LUX30_delay_nms(uint16 k)	
B_LUX30_delay_nms:
        CFI Block cfiBlock0 Using cfiCommon0
        CFI Function B_LUX30_delay_nms
        CODE
//   17 {						
        ; Saved register size: 0
        ; Auto size: 0
//   18   uint16 i,j;				
//   19   for(i=0;i<k;i++)
        MOV     R0,#0x0
        MOV     R1,#0x0
        SJMP    ??B_LUX30_delay_nms_0
//   20   {			
//   21     for(j=0;j<6000;j++)			
??B_LUX30_delay_nms_1:
        MOV     A,R0
        ADD     A,#0x1
        INC     R0
        MOV     A,R1
        ADDC    A,#0x0
        MOV     R1,A
??B_LUX30_delay_nms_0:
        CLR     C
        MOV     A,R0
        SUBB    A,R2
        MOV     A,R1
        SUBB    A,R3
        JC      ??B_LUX30_delay_nms_1
//   22     {
//   23       ;
//   24     }
//   25   }						
//   26 }					
        LJMP    ?BRET
        CFI EndBlock cfiBlock0
//   27 
//   28 /*---------------------------------------------------------------------
//   29  功能描述: 延时5微秒  不同的工作环境,需要调整此函数
//   30  参数说明: 无	
//   31  函数返回: 无
//   32  ---------------------------------------------------------------------*/

        RSEG BANKED_CODE:CODE:NOROOT(0)
//   33 void B_LUX30_Delay5us()
B_LUX30_Delay5us:
        CFI Block cfiBlock1 Using cfiCommon0
        CFI Function B_LUX30_Delay5us
        CODE
//   34 {
        ; Saved register size: 0
        ; Auto size: 0
//   35   uint16 n = 50;
        MOV     R0,#0x32
        MOV     R1,#0x0
//   36   
//   37   while (n--);
??B_LUX30_Delay5us_0:
        LCALL   ?Subroutine5 & 0xFFFF
??CrossCallReturnLabel_4:
        JNZ     ??B_LUX30_Delay5us_0
//   38 }
        LJMP    ?BRET
        CFI EndBlock cfiBlock1
//   39 
//   40 /*---------------------------------------------------------------------
//   41  功能描述: 延时5毫秒  不同的工作环境,需要调整此函数
//   42  参数说明: 无	
//   43  函数返回: 无
//   44  ---------------------------------------------------------------------*/

        RSEG BANKED_CODE:CODE:NOROOT(0)
//   45 void B_LUX30_Delay5ms()
B_LUX30_Delay5ms:
        CFI Block cfiBlock2 Using cfiCommon0
        CFI Function B_LUX30_Delay5ms
        CODE
//   46 {
        ; Saved register size: 0
        ; Auto size: 0
//   47   uint16 n = 50000;
        MOV     R0,#0x50
        MOV     R1,#-0x3d
//   48   
//   49   while (n--);
??B_LUX30_Delay5ms_0:
        LCALL   ?Subroutine5 & 0xFFFF
??CrossCallReturnLabel_5:
        JNZ     ??B_LUX30_Delay5ms_0
//   50 }
        LJMP    ?BRET
        CFI EndBlock cfiBlock2

        RSEG BANKED_CODE:CODE:NOROOT(0)
?Subroutine5:
        CFI Block cfiCond3 Using cfiCommon0
        CFI NoFunction
        CFI Conditional ??CrossCallReturnLabel_4
        CFI Block cfiCond4 Using cfiCommon0
        CFI (cfiCond4) NoFunction
        CFI (cfiCond4) Conditional ??CrossCallReturnLabel_5
        CFI Block cfiPicker5 Using cfiCommon1
        CFI (cfiPicker5) NoFunction
        CFI (cfiPicker5) Picker
        MOV     A,R0
        MOV     R2,A
        MOV     A,R1
        MOV     R3,A
        MOV     A,R2
        ADD     A,#-0x1
        DEC     R0
        MOV     A,R3
        ADDC    A,#-0x1
        MOV     R1,A
        MOV     A,R2
        ORL     A,R3
        RET
        CFI EndBlock cfiCond3
        CFI EndBlock cfiCond4
        CFI EndBlock cfiPicker5
//   51 
//   52 /*---------------------------------------------------------------------
//   53  功能描述: 起始信号
//   54  参数说明: 无	
//   55  函数返回: 无
//   56  ---------------------------------------------------------------------*/

        RSEG BANKED_CODE:CODE:NOROOT(0)
//   57 void B_LUX30_Start()
B_LUX30_Start:
        CFI Block cfiBlock6 Using cfiCommon0
        CFI Function B_LUX30_Start
        CODE
//   58 {
        FUNCALL B_LUX30_Start, B_LUX30_Delay5us
        LOCFRAME ISTACK, 2, STACK
        LOCFRAME PSTACK, 0, STACK
        LOCFRAME XSTACK, 0, STACK
        LOCFRAME IOVERLAY, 0, STATIC
        LOCFRAME DOVERLAY, 0, STATIC
        ARGFRAME ISTACK, 2, STACK
        ARGFRAME PSTACK, 0, STACK
        ARGFRAME XSTACK, 0, STACK
        ARGFRAME IOVERLAY, 0, STATIC
        ARGFRAME DOVERLAY, 0, STATIC
        FUNCALL B_LUX30_Start, B_LUX30_Delay5us
        LOCFRAME ISTACK, 2, STACK
        LOCFRAME PSTACK, 0, STACK
        LOCFRAME XSTACK, 0, STACK
        LOCFRAME IOVERLAY, 0, STATIC
        LOCFRAME DOVERLAY, 0, STATIC
        ARGFRAME ISTACK, 2, STACK
        ARGFRAME PSTACK, 0, STACK
        ARGFRAME XSTACK, 0, STACK
        ARGFRAME IOVERLAY, 0, STATIC
        ARGFRAME DOVERLAY, 0, STATIC
        PUSH    DPL
        CFI DPL0 Frame(CFA_SP, 4)
        CFI CFA_SP SP+-4
        PUSH    DPH
        CFI DPH0 Frame(CFA_SP, 5)
        CFI CFA_SP SP+-5
        ; Saved register size: 2
        ; Auto size: 0
//   59   B_LUX30_SDA0_H;                         //拉高数据线
        SETB    0x90.3
//   60   B_LUX30_SCL0_H;                         //拉高时钟线
        SETB    0x90.2
//   61   B_LUX30_Delay5us();                     //延时
        ; Setup parameters for call to function B_LUX30_Delay5us
        LCALL   ??B_LUX30_Delay5us?relay
//   62   B_LUX30_SDA0_L;                         //产生下降沿
        CLR     0x90.3
//   63   B_LUX30_Delay5us();                     //延时
        ; Setup parameters for call to function B_LUX30_Delay5us
        LCALL   ?Subroutine8 & 0xFFFF
        CFI EndBlock cfiBlock6
//   64   B_LUX30_SCL0_L;                         //拉低时钟线
//   65 }
??CrossCallReturnLabel_10:
        REQUIRE ?Subroutine0
        REQUIRE _A_P1
        ; // Fall through to label ?Subroutine0

        RSEG BANKED_CODE:CODE:NOROOT(0)
?Subroutine0:
        CFI Block cfiBlock7 Using cfiCommon0
        CFI NoFunction
        CFI CFA_SP SP+-5
        CFI DPL0 Frame(CFA_SP, 4)
        CFI DPH0 Frame(CFA_SP, 5)
        POP     DPH
        CFI CFA_SP SP+-4
        CFI DPH0 SameValue
        POP     DPL
        CFI CFA_SP SP+-3
        CFI DPL0 SameValue
        LJMP    ?BRET
        CFI EndBlock cfiBlock7
//   66 
//   67 /*---------------------------------------------------------------------
//   68  功能描述: 停止信号
//   69  参数说明: 无	
//   70  函数返回: 无
//   71  ---------------------------------------------------------------------*/

        RSEG BANKED_CODE:CODE:NOROOT(0)
//   72 void B_LUX30_Stop()
B_LUX30_Stop:
        CFI Block cfiBlock8 Using cfiCommon0
        CFI Function B_LUX30_Stop
        CODE
//   73 {
        FUNCALL B_LUX30_Stop, B_LUX30_Delay5us
        LOCFRAME ISTACK, 2, STACK
        LOCFRAME PSTACK, 0, STACK
        LOCFRAME XSTACK, 0, STACK
        LOCFRAME IOVERLAY, 0, STATIC
        LOCFRAME DOVERLAY, 0, STATIC
        ARGFRAME ISTACK, 2, STACK
        ARGFRAME PSTACK, 0, STACK
        ARGFRAME XSTACK, 0, STACK
        ARGFRAME IOVERLAY, 0, STATIC
        ARGFRAME DOVERLAY, 0, STATIC
        FUNCALL B_LUX30_Stop, B_LUX30_Delay5us
        LOCFRAME ISTACK, 2, STACK
        LOCFRAME PSTACK, 0, STACK
        LOCFRAME XSTACK, 0, STACK
        LOCFRAME IOVERLAY, 0, STATIC
        LOCFRAME DOVERLAY, 0, STATIC
        ARGFRAME ISTACK, 2, STACK
        ARGFRAME PSTACK, 0, STACK
        ARGFRAME XSTACK, 0, STACK
        ARGFRAME IOVERLAY, 0, STATIC
        ARGFRAME DOVERLAY, 0, STATIC
        FUNCALL B_LUX30_Stop, B_LUX30_Delay5us
        LOCFRAME ISTACK, 2, STACK
        LOCFRAME PSTACK, 0, STACK
        LOCFRAME XSTACK, 0, STACK
        LOCFRAME IOVERLAY, 0, STATIC
        LOCFRAME DOVERLAY, 0, STATIC
        ARGFRAME ISTACK, 2, STACK
        ARGFRAME PSTACK, 0, STACK
        ARGFRAME XSTACK, 0, STACK
        ARGFRAME IOVERLAY, 0, STATIC
        ARGFRAME DOVERLAY, 0, STATIC
        FUNCALL B_LUX30_Stop, B_LUX30_delay_nms
        LOCFRAME ISTACK, 2, STACK
        LOCFRAME PSTACK, 0, STACK
        LOCFRAME XSTACK, 0, STACK
        LOCFRAME IOVERLAY, 0, STATIC
        LOCFRAME DOVERLAY, 0, STATIC
        ARGFRAME ISTACK, 2, STACK
        ARGFRAME PSTACK, 0, STACK
        ARGFRAME XSTACK, 0, STACK
        ARGFRAME IOVERLAY, 0, STATIC
        ARGFRAME DOVERLAY, 0, STATIC
        PUSH    DPL
        CFI DPL0 Frame(CFA_SP, 4)
        CFI CFA_SP SP+-4
        PUSH    DPH
        CFI DPH0 Frame(CFA_SP, 5)
        CFI CFA_SP SP+-5
        ; Saved register size: 2
        ; Auto size: 0
//   74   B_LUX30_SDA0_L;                         //拉低数据线
        CLR     0x90.3
//   75   B_LUX30_SCL0_H;                         //拉高时钟线
        SETB    0x90.2
//   76   B_LUX30_Delay5us();                     //延时
        ; Setup parameters for call to function B_LUX30_Delay5us
        LCALL   ??B_LUX30_Delay5us?relay
//   77   B_LUX30_SDA0_H;                         //产生上升沿
        SETB    0x90.3
//   78   B_LUX30_Delay5us();                     //延时
        ; Setup parameters for call to function B_LUX30_Delay5us
        LCALL   ?Subroutine6 & 0xFFFF
//   79   B_LUX30_SCL0_L;
//   80   B_LUX30_Delay5us();
//   81   
//   82   B_LUX30_delay_nms(1000);                         //延时180ms
??CrossCallReturnLabel_6:
        ; Setup parameters for call to function B_LUX30_delay_nms
        MOV     R2,#-0x18
        MOV     R3,#0x3
        LCALL   ??B_LUX30_delay_nms?relay
//   83 }
        SJMP    ?Subroutine0
        CFI EndBlock cfiBlock8
        REQUIRE _A_P1
//   84 
//   85 /*---------------------------------------------------------------------
//   86  功能描述: 发送应答信号
//   87  参数说明: ack - 应答信号(0:ACK 1:NAK)
//   88  函数返回: 无
//   89  ---------------------------------------------------------------------*/

        RSEG BANKED_CODE:CODE:NOROOT(0)
//   90 void B_LUX30_SendACK(uint8 ack)
B_LUX30_SendACK:
        CFI Block cfiBlock9 Using cfiCommon0
        CFI Function B_LUX30_SendACK
        CODE
//   91 {
        FUNCALL B_LUX30_SendACK, B_LUX30_Delay5us
        LOCFRAME ISTACK, 0, STACK
        LOCFRAME PSTACK, 0, STACK
        LOCFRAME XSTACK, 9, STACK
        LOCFRAME IOVERLAY, 0, STATIC
        LOCFRAME DOVERLAY, 0, STATIC
        ARGFRAME ISTACK, 0, STACK
        ARGFRAME PSTACK, 0, STACK
        ARGFRAME XSTACK, 9, STACK
        ARGFRAME IOVERLAY, 0, STATIC
        ARGFRAME DOVERLAY, 0, STATIC
        FUNCALL B_LUX30_SendACK, B_LUX30_Delay5us
        LOCFRAME ISTACK, 0, STACK
        LOCFRAME PSTACK, 0, STACK
        LOCFRAME XSTACK, 9, STACK
        LOCFRAME IOVERLAY, 0, STATIC
        LOCFRAME DOVERLAY, 0, STATIC
        ARGFRAME ISTACK, 0, STACK
        ARGFRAME PSTACK, 0, STACK
        ARGFRAME XSTACK, 9, STACK
        ARGFRAME IOVERLAY, 0, STATIC
        ARGFRAME DOVERLAY, 0, STATIC
        MOV     A,#-0x9
        LCALL   ?BANKED_ENTER_XDATA
        CFI DPH0 load(1, XDATA, add(CFA_XSP16, literal(-1)))
        CFI DPL0 load(1, XDATA, add(CFA_XSP16, literal(-2)))
        CFI ?BRET_EXT load(1, XDATA, add(CFA_XSP16, literal(-3)))
        CFI ?RET_HIGH load(1, XDATA, add(CFA_XSP16, literal(-4)))
        CFI ?RET_LOW load(1, XDATA, add(CFA_XSP16, literal(-5)))
        CFI R7 load(1, XDATA, add(CFA_XSP16, literal(-6)))
        CFI V0 load(1, XDATA, add(CFA_XSP16, literal(-7)))
        CFI VB load(1, XDATA, add(CFA_XSP16, literal(-8)))
        CFI R6 load(1, XDATA, add(CFA_XSP16, literal(-9)))
        CFI CFA_SP SP+0
        CFI CFA_XSP16 add(XSP16, 9)
        ; Saved register size: 9
        ; Auto size: 0
        MOV     A,R1
//   92   if (ack&0x01)	B_LUX30_SDA0_H;		//写应答信号
        MOV     C,0xE0 /* A   */.0
        JNC     ??B_LUX30_SendACK_0
        SETB    0x90.3
        SJMP    ??B_LUX30_SendACK_1
//   93   else	B_LUX30_SDA0_L;
??B_LUX30_SendACK_0:
        CLR     0x90.3
//   94   
//   95   B_LUX30_SCL0_H;                         //拉高时钟线
??B_LUX30_SendACK_1:
        SETB    0x90.2
//   96   B_LUX30_Delay5us();                     //延时
        ; Setup parameters for call to function B_LUX30_Delay5us
        LCALL   ?Subroutine8 & 0xFFFF
//   97   B_LUX30_SCL0_L;                         //拉低时钟线
//   98   B_LUX30_SDA0_H;
??CrossCallReturnLabel_11:
        SETB    0x90.3
//   99   B_LUX30_Delay5us();                     //延时
        ; Setup parameters for call to function B_LUX30_Delay5us
        LCALL   ??B_LUX30_Delay5us?relay
//  100 }
        SJMP    ??Subroutine10_0
        CFI EndBlock cfiBlock9
        REQUIRE _A_P1
//  101 
//  102 /*---------------------------------------------------------------------
//  103  功能描述: 接收应答信号
//  104  参数说明: 无
//  105  函数返回: 返回应答信号
//  106  ---------------------------------------------------------------------*/

        RSEG BANKED_CODE:CODE:NOROOT(0)
?Subroutine1:
        CFI Block cfiBlock10 Using cfiCommon0
        CFI NoFunction
        CFI CFA_SP SP+0
        CFI CFA_XSP16 add(XSP16, 9)
        CFI VB load(1, XDATA, add(CFA_XSP16, literal(-8)))
        CFI DPL0 load(1, XDATA, add(CFA_XSP16, literal(-2)))
        CFI DPH0 load(1, XDATA, add(CFA_XSP16, literal(-1)))
        CFI R6 load(1, XDATA, add(CFA_XSP16, literal(-9)))
        CFI R7 load(1, XDATA, add(CFA_XSP16, literal(-6)))
        CFI V0 load(1, XDATA, add(CFA_XSP16, literal(-7)))
        CFI ?BRET_EXT load(1, XDATA, add(CFA_XSP16, literal(-3)))
        CFI ?RET_HIGH load(1, XDATA, add(CFA_XSP16, literal(-4)))
        CFI ?RET_LOW load(1, XDATA, add(CFA_XSP16, literal(-5)))
        MOV     R1,A
        CFI EndBlock cfiBlock10
        REQUIRE ??Subroutine10_0
        ; // Fall through to label ??Subroutine10_0

        RSEG BANKED_CODE:CODE:NOROOT(0)
??Subroutine10_0:
        CFI Block cfiBlock11 Using cfiCommon0
        CFI NoFunction
        CFI CFA_SP SP+0
        CFI CFA_XSP16 add(XSP16, 9)
        CFI VB load(1, XDATA, add(CFA_XSP16, literal(-8)))
        CFI DPL0 load(1, XDATA, add(CFA_XSP16, literal(-2)))
        CFI DPH0 load(1, XDATA, add(CFA_XSP16, literal(-1)))
        CFI R6 load(1, XDATA, add(CFA_XSP16, literal(-9)))
        CFI R7 load(1, XDATA, add(CFA_XSP16, literal(-6)))
        CFI V0 load(1, XDATA, add(CFA_XSP16, literal(-7)))
        CFI ?BRET_EXT load(1, XDATA, add(CFA_XSP16, literal(-3)))
        CFI ?RET_HIGH load(1, XDATA, add(CFA_XSP16, literal(-4)))
        CFI ?RET_LOW load(1, XDATA, add(CFA_XSP16, literal(-5)))
        MOV     R7,#0x1
        LJMP    ?BANKED_LEAVE_XDATA
        CFI EndBlock cfiBlock11

        RSEG BANKED_CODE:CODE:NOROOT(0)
//  107 uint8 B_LUX30_RecvACK()
B_LUX30_RecvACK:
        CFI Block cfiBlock12 Using cfiCommon0
        CFI Function B_LUX30_RecvACK
        CODE
//  108 {
        FUNCALL B_LUX30_RecvACK, B_LUX30_Delay5us
        LOCFRAME ISTACK, 0, STACK
        LOCFRAME PSTACK, 0, STACK
        LOCFRAME XSTACK, 9, STACK
        LOCFRAME IOVERLAY, 0, STATIC
        LOCFRAME DOVERLAY, 0, STATIC
        ARGFRAME ISTACK, 0, STACK
        ARGFRAME PSTACK, 0, STACK
        ARGFRAME XSTACK, 9, STACK
        ARGFRAME IOVERLAY, 0, STATIC
        ARGFRAME DOVERLAY, 0, STATIC
        FUNCALL B_LUX30_RecvACK, B_LUX30_Delay5us
        LOCFRAME ISTACK, 0, STACK
        LOCFRAME PSTACK, 0, STACK
        LOCFRAME XSTACK, 9, STACK
        LOCFRAME IOVERLAY, 0, STATIC
        LOCFRAME DOVERLAY, 0, STATIC
        ARGFRAME ISTACK, 0, STACK
        ARGFRAME PSTACK, 0, STACK
        ARGFRAME XSTACK, 9, STACK
        ARGFRAME IOVERLAY, 0, STATIC
        ARGFRAME DOVERLAY, 0, STATIC
        MOV     A,#-0x9
        LCALL   ?BANKED_ENTER_XDATA
        CFI DPH0 load(1, XDATA, add(CFA_XSP16, literal(-1)))
        CFI DPL0 load(1, XDATA, add(CFA_XSP16, literal(-2)))
        CFI ?BRET_EXT load(1, XDATA, add(CFA_XSP16, literal(-3)))
        CFI ?RET_HIGH load(1, XDATA, add(CFA_XSP16, literal(-4)))
        CFI ?RET_LOW load(1, XDATA, add(CFA_XSP16, literal(-5)))
        CFI R7 load(1, XDATA, add(CFA_XSP16, literal(-6)))
        CFI V0 load(1, XDATA, add(CFA_XSP16, literal(-7)))
        CFI VB load(1, XDATA, add(CFA_XSP16, literal(-8)))
        CFI R6 load(1, XDATA, add(CFA_XSP16, literal(-9)))
        CFI CFA_SP SP+0
        CFI CFA_XSP16 add(XSP16, 9)
        ; Saved register size: 9
        ; Auto size: 0
//  109   uint8 CY = 0x00;
//  110   B_LUX30_SDA0_H;
        SETB    0x90.3
//  111   
//  112   B_LUX30_SDA0_I;
        ANL     0xfe,#0xf7
//  113   
//  114   B_LUX30_SCL0_H;                         //拉高时钟线
        SETB    0x90.2
//  115   B_LUX30_Delay5us();                     //延时
        ; Setup parameters for call to function B_LUX30_Delay5us
        LCALL   ??B_LUX30_Delay5us?relay
//  116   
//  117   
//  118   CY |= B_LUX30_SDA0_DAT;                 //读应答信号
        MOV     A,0x90
        MOV     R6,A
//  119   
//  120   B_LUX30_Delay5us();                     //延时
        ; Setup parameters for call to function B_LUX30_Delay5us
        LCALL   ?Subroutine8 & 0xFFFF
//  121   
//  122   B_LUX30_SCL0_L;                         //拉低时钟线
//  123   
//  124   B_LUX30_SDA0_O;
??CrossCallReturnLabel_12:
        ORL     0xfe,#0x8
//  125   
//  126   return CY;
        MOV     A,R6
        MOV     C,0xE0 /* A   */.3
        CLR     A
        RLC     A
        SJMP    ?Subroutine1
        CFI EndBlock cfiBlock12
        REQUIRE _A_P1
        REQUIRE P1DIR
//  127 }

        RSEG BANKED_CODE:CODE:NOROOT(0)
?Subroutine8:
        CFI Block cfiCond13 Using cfiCommon0
        CFI NoFunction
        CFI Conditional ??CrossCallReturnLabel_10
        CFI DPL0 Frame(CFA_SP, 4)
        CFI DPH0 Frame(CFA_SP, 5)
        CFI CFA_SP SP+-5
        CFI Block cfiCond14 Using cfiCommon0
        CFI (cfiCond14) NoFunction
        CFI (cfiCond14) Conditional ??CrossCallReturnLabel_11
        CFI (cfiCond14) R6 load(1, XDATA, add(CFA_XSP16, literal(-9)))
        CFI (cfiCond14) VB load(1, XDATA, add(CFA_XSP16, literal(-8)))
        CFI (cfiCond14) V0 load(1, XDATA, add(CFA_XSP16, literal(-7)))
        CFI (cfiCond14) R7 load(1, XDATA, add(CFA_XSP16, literal(-6)))
        CFI (cfiCond14) ?RET_LOW load(1, XDATA, add(CFA_XSP16, literal(-5)))
        CFI (cfiCond14) ?RET_HIGH load(1, XDATA, add(CFA_XSP16, literal(-4)))
        CFI (cfiCond14) ?BRET_EXT load(1, XDATA, add(CFA_XSP16, literal(-3)))
        CFI (cfiCond14) DPL0 load(1, XDATA, add(CFA_XSP16, literal(-2)))
        CFI (cfiCond14) DPH0 load(1, XDATA, add(CFA_XSP16, literal(-1)))
        CFI (cfiCond14) CFA_SP SP+0
        CFI (cfiCond14) CFA_XSP16 add(XSP16, 9)
        CFI Block cfiCond15 Using cfiCommon0
        CFI (cfiCond15) NoFunction
        CFI (cfiCond15) Conditional ??CrossCallReturnLabel_12
        CFI (cfiCond15) R6 load(1, XDATA, add(CFA_XSP16, literal(-9)))
        CFI (cfiCond15) VB load(1, XDATA, add(CFA_XSP16, literal(-8)))
        CFI (cfiCond15) V0 load(1, XDATA, add(CFA_XSP16, literal(-7)))
        CFI (cfiCond15) R7 load(1, XDATA, add(CFA_XSP16, literal(-6)))
        CFI (cfiCond15) ?RET_LOW load(1, XDATA, add(CFA_XSP16, literal(-5)))
        CFI (cfiCond15) ?RET_HIGH load(1, XDATA, add(CFA_XSP16, literal(-4)))
        CFI (cfiCond15) ?BRET_EXT load(1, XDATA, add(CFA_XSP16, literal(-3)))
        CFI (cfiCond15) DPL0 load(1, XDATA, add(CFA_XSP16, literal(-2)))
        CFI (cfiCond15) DPH0 load(1, XDATA, add(CFA_XSP16, literal(-1)))
        CFI (cfiCond15) CFA_SP SP+0
        CFI (cfiCond15) CFA_XSP16 add(XSP16, 9)
        CFI Block cfiCond16 Using cfiCommon0
        CFI (cfiCond16) NoFunction
        CFI (cfiCond16) Conditional ??CrossCallReturnLabel_13, ??CrossCallReturnLabel_6
        CFI (cfiCond16) DPL0 Frame(CFA_SP, 4)
        CFI (cfiCond16) DPH0 Frame(CFA_SP, 5)
        CFI (cfiCond16) CFA_SP SP+-5
        CFI Block cfiCond17 Using cfiCommon0
        CFI (cfiCond17) NoFunction
        CFI (cfiCond17) Conditional ??CrossCallReturnLabel_13, ??CrossCallReturnLabel_7
        CFI (cfiCond17) R6 load(1, XDATA, add(CFA_XSP16, literal(-9)))
        CFI (cfiCond17) VB load(1, XDATA, add(CFA_XSP16, literal(-8)))
        CFI (cfiCond17) V0 load(1, XDATA, add(CFA_XSP16, literal(-7)))
        CFI (cfiCond17) R7 load(1, XDATA, add(CFA_XSP16, literal(-6)))
        CFI (cfiCond17) ?RET_LOW load(1, XDATA, add(CFA_XSP16, literal(-5)))
        CFI (cfiCond17) ?RET_HIGH load(1, XDATA, add(CFA_XSP16, literal(-4)))
        CFI (cfiCond17) ?BRET_EXT load(1, XDATA, add(CFA_XSP16, literal(-3)))
        CFI (cfiCond17) DPL0 load(1, XDATA, add(CFA_XSP16, literal(-2)))
        CFI (cfiCond17) DPH0 load(1, XDATA, add(CFA_XSP16, literal(-1)))
        CFI (cfiCond17) CFA_SP SP+0
        CFI (cfiCond17) CFA_XSP16 add(XSP16, 9)
        CFI Block cfiPicker18 Using cfiCommon1
        CFI (cfiPicker18) NoFunction
        CFI (cfiPicker18) Picker
        LCALL   ??B_LUX30_Delay5us?relay
        CLR     0x90.2
        RET
        CFI EndBlock cfiCond13
        CFI EndBlock cfiCond14
        CFI EndBlock cfiCond15
        CFI EndBlock cfiCond16
        CFI EndBlock cfiCond17
        CFI EndBlock cfiPicker18
//  128 
//  129 /*---------------------------------------------------------------------
//  130  功能描述: 向IIC总线发送一个字节数据
//  131  参数说明: dat - 写字节
//  132  函数返回: 无
//  133  ---------------------------------------------------------------------*/

        RSEG BANKED_CODE:CODE:NOROOT(0)
//  134 void B_LUX30_SendByte(uint8 dat)
B_LUX30_SendByte:
        CFI Block cfiBlock19 Using cfiCommon0
        CFI Function B_LUX30_SendByte
        CODE
//  135 {
        FUNCALL B_LUX30_SendByte, B_LUX30_Delay5us
        LOCFRAME ISTACK, 0, STACK
        LOCFRAME PSTACK, 0, STACK
        LOCFRAME XSTACK, 9, STACK
        LOCFRAME IOVERLAY, 0, STATIC
        LOCFRAME DOVERLAY, 0, STATIC
        ARGFRAME ISTACK, 0, STACK
        ARGFRAME PSTACK, 0, STACK
        ARGFRAME XSTACK, 9, STACK
        ARGFRAME IOVERLAY, 0, STATIC
        ARGFRAME DOVERLAY, 0, STATIC
        FUNCALL B_LUX30_SendByte, B_LUX30_Delay5us
        LOCFRAME ISTACK, 0, STACK
        LOCFRAME PSTACK, 0, STACK
        LOCFRAME XSTACK, 9, STACK
        LOCFRAME IOVERLAY, 0, STATIC
        LOCFRAME DOVERLAY, 0, STATIC
        ARGFRAME ISTACK, 0, STACK
        ARGFRAME PSTACK, 0, STACK
        ARGFRAME XSTACK, 9, STACK
        ARGFRAME IOVERLAY, 0, STATIC
        ARGFRAME DOVERLAY, 0, STATIC
        FUNCALL B_LUX30_SendByte, B_LUX30_Delay5us
        LOCFRAME ISTACK, 0, STACK
        LOCFRAME PSTACK, 0, STACK
        LOCFRAME XSTACK, 9, STACK
        LOCFRAME IOVERLAY, 0, STATIC
        LOCFRAME DOVERLAY, 0, STATIC
        ARGFRAME ISTACK, 0, STACK
        ARGFRAME PSTACK, 0, STACK
        ARGFRAME XSTACK, 9, STACK
        ARGFRAME IOVERLAY, 0, STATIC
        ARGFRAME DOVERLAY, 0, STATIC
        FUNCALL B_LUX30_SendByte, B_LUX30_RecvACK
        LOCFRAME ISTACK, 0, STACK
        LOCFRAME PSTACK, 0, STACK
        LOCFRAME XSTACK, 9, STACK
        LOCFRAME IOVERLAY, 0, STATIC
        LOCFRAME DOVERLAY, 0, STATIC
        ARGFRAME ISTACK, 0, STACK
        ARGFRAME PSTACK, 0, STACK
        ARGFRAME XSTACK, 9, STACK
        ARGFRAME IOVERLAY, 0, STATIC
        ARGFRAME DOVERLAY, 0, STATIC
        MOV     A,#-0x9
        LCALL   ?BANKED_ENTER_XDATA
        CFI DPH0 load(1, XDATA, add(CFA_XSP16, literal(-1)))
        CFI DPL0 load(1, XDATA, add(CFA_XSP16, literal(-2)))
        CFI ?BRET_EXT load(1, XDATA, add(CFA_XSP16, literal(-3)))
        CFI ?RET_HIGH load(1, XDATA, add(CFA_XSP16, literal(-4)))
        CFI ?RET_LOW load(1, XDATA, add(CFA_XSP16, literal(-5)))
        CFI R7 load(1, XDATA, add(CFA_XSP16, literal(-6)))
        CFI V0 load(1, XDATA, add(CFA_XSP16, literal(-7)))
        CFI VB load(1, XDATA, add(CFA_XSP16, literal(-8)))
        CFI R6 load(1, XDATA, add(CFA_XSP16, literal(-9)))
        CFI CFA_SP SP+0
        CFI CFA_XSP16 add(XSP16, 9)
        ; Saved register size: 9
        ; Auto size: 0
        MOV     A,R1
        MOV     R7,A
//  136   uint8 i;
//  137   
//  138   for (i=0; i<8; i++)         			//8位计数器
        MOV     R6,#0x8
//  139   {
//  140     if (dat&0x80)	B_LUX30_SDA0_H;
??B_LUX30_SendByte_0:
        MOV     A,R7
        MOV     C,0xE0 /* A   */.7
        JNC     ??B_LUX30_SendByte_1
        SETB    0x90.3
        SJMP    ??B_LUX30_SendByte_2
//  141     else	B_LUX30_SDA0_L;                   //送数据口
??B_LUX30_SendByte_1:
        CLR     0x90.3
//  142     
//  143     B_LUX30_Delay5us();             		//延时
??B_LUX30_SendByte_2:
        ; Setup parameters for call to function B_LUX30_Delay5us
        LCALL   ??B_LUX30_Delay5us?relay
//  144     B_LUX30_SCL0_H;                		//拉高时钟线
        SETB    0x90.2
//  145     B_LUX30_Delay5us();             		//延时
        ; Setup parameters for call to function B_LUX30_Delay5us
        LCALL   ?Subroutine6 & 0xFFFF
//  146     B_LUX30_SCL0_L;                		//拉低时钟线
//  147     B_LUX30_Delay5us();             		//延时
//  148     dat <<= 1;              			//移出数据的最高位
??CrossCallReturnLabel_7:
        MOV     A,R7
        CLR     C
        RLC     A
        MOV     R7,A
//  149   }
        DEC     R6
        MOV     A,R6
        JNZ     ??B_LUX30_SendByte_0
//  150   
//  151   B_LUX30_RecvACK();
        ; Setup parameters for call to function B_LUX30_RecvACK
        LCALL   ??B_LUX30_RecvACK?relay
//  152 }
        SJMP    ??Subroutine10_0
        CFI EndBlock cfiBlock19
        REQUIRE _A_P1

        RSEG BANKED_CODE:CODE:NOROOT(0)
?Subroutine6:
        CFI Block cfiCond20 Using cfiCommon0
        CFI NoFunction
        CFI Conditional ??CrossCallReturnLabel_6
        CFI DPL0 Frame(CFA_SP, 4)
        CFI DPH0 Frame(CFA_SP, 5)
        CFI CFA_SP SP+-5
        CFI Block cfiCond21 Using cfiCommon0
        CFI (cfiCond21) NoFunction
        CFI (cfiCond21) Conditional ??CrossCallReturnLabel_7
        CFI (cfiCond21) R6 load(1, XDATA, add(CFA_XSP16, literal(-9)))
        CFI (cfiCond21) VB load(1, XDATA, add(CFA_XSP16, literal(-8)))
        CFI (cfiCond21) V0 load(1, XDATA, add(CFA_XSP16, literal(-7)))
        CFI (cfiCond21) R7 load(1, XDATA, add(CFA_XSP16, literal(-6)))
        CFI (cfiCond21) ?RET_LOW load(1, XDATA, add(CFA_XSP16, literal(-5)))
        CFI (cfiCond21) ?RET_HIGH load(1, XDATA, add(CFA_XSP16, literal(-4)))
        CFI (cfiCond21) ?BRET_EXT load(1, XDATA, add(CFA_XSP16, literal(-3)))
        CFI (cfiCond21) DPL0 load(1, XDATA, add(CFA_XSP16, literal(-2)))
        CFI (cfiCond21) DPH0 load(1, XDATA, add(CFA_XSP16, literal(-1)))
        CFI (cfiCond21) CFA_SP SP+0
        CFI (cfiCond21) CFA_XSP16 add(XSP16, 9)
        CFI Block cfiPicker22 Using cfiCommon1
        CFI (cfiPicker22) NoFunction
        CFI (cfiPicker22) Picker
        LCALL   ?Subroutine8 & 0xFFFF
??CrossCallReturnLabel_13:
        ; Setup parameters for call to function B_LUX30_Delay5us
        ; Setup parameters for call to function B_LUX30_Delay5us
        LCALL   ??B_LUX30_Delay5us?relay
        RET
        CFI EndBlock cfiCond20
        CFI EndBlock cfiCond21
        CFI EndBlock cfiPicker22
//  153 
//  154 /*---------------------------------------------------------------------
//  155  功能描述: 从IIC总线接收一个字节数据
//  156  参数说明: 无
//  157  函数返回: 接收字节
//  158  ---------------------------------------------------------------------*/

        RSEG BANKED_CODE:CODE:NOROOT(0)
//  159 uint8 B_LUX30_RecvByte()
B_LUX30_RecvByte:
        CFI Block cfiBlock23 Using cfiCommon0
        CFI Function B_LUX30_RecvByte
        CODE
//  160 {
        FUNCALL B_LUX30_RecvByte, B_LUX30_Delay5us
        LOCFRAME ISTACK, 0, STACK
        LOCFRAME PSTACK, 0, STACK
        LOCFRAME XSTACK, 9, STACK
        LOCFRAME IOVERLAY, 0, STATIC
        LOCFRAME DOVERLAY, 0, STATIC
        ARGFRAME ISTACK, 0, STACK
        ARGFRAME PSTACK, 0, STACK
        ARGFRAME XSTACK, 9, STACK
        ARGFRAME IOVERLAY, 0, STATIC
        ARGFRAME DOVERLAY, 0, STATIC
        FUNCALL B_LUX30_RecvByte, B_LUX30_Delay5us
        LOCFRAME ISTACK, 0, STACK
        LOCFRAME PSTACK, 0, STACK
        LOCFRAME XSTACK, 9, STACK
        LOCFRAME IOVERLAY, 0, STATIC
        LOCFRAME DOVERLAY, 0, STATIC
        ARGFRAME ISTACK, 0, STACK
        ARGFRAME PSTACK, 0, STACK
        ARGFRAME XSTACK, 9, STACK
        ARGFRAME IOVERLAY, 0, STATIC
        ARGFRAME DOVERLAY, 0, STATIC
        MOV     A,#-0x9
        LCALL   ?BANKED_ENTER_XDATA
        CFI DPH0 load(1, XDATA, add(CFA_XSP16, literal(-1)))
        CFI DPL0 load(1, XDATA, add(CFA_XSP16, literal(-2)))
        CFI ?BRET_EXT load(1, XDATA, add(CFA_XSP16, literal(-3)))
        CFI ?RET_HIGH load(1, XDATA, add(CFA_XSP16, literal(-4)))
        CFI ?RET_LOW load(1, XDATA, add(CFA_XSP16, literal(-5)))
        CFI R7 load(1, XDATA, add(CFA_XSP16, literal(-6)))
        CFI V0 load(1, XDATA, add(CFA_XSP16, literal(-7)))
        CFI VB load(1, XDATA, add(CFA_XSP16, literal(-8)))
        CFI R6 load(1, XDATA, add(CFA_XSP16, literal(-9)))
        CFI CFA_SP SP+0
        CFI CFA_XSP16 add(XSP16, 9)
        ; Saved register size: 9
        ; Auto size: 0
//  161   uint8 i;
//  162   uint8 dat = 0;
        MOV     R6,#0x0
//  163   B_LUX30_SDA0_I;
        ANL     0xfe,#0xf7
//  164   
//  165   B_LUX30_SDA0_H;                         //使能内部上拉,准备读取数据,
        SETB    0x90.3
//  166   for (i=0; i<8; i++)         	        //8位计数器
        MOV     R7,#0x8
//  167   {
//  168     dat <<= 1;
//  169     B_LUX30_SCL0_H;                       //拉高时钟线
??B_LUX30_RecvByte_0:
        SETB    0x90.2
//  170     B_LUX30_Delay5us();             	//延时
        ; Setup parameters for call to function B_LUX30_Delay5us
        LCALL   ??B_LUX30_Delay5us?relay
//  171     dat |= B_LUX30_SDA0_DAT;              //读数据               
        MOV     C,0x90.3
        CLR     A
        RLC     A
        MOV     R0,A
        MOV     A,R6
        RLC     A
        ORL     A,R0
        MOV     R6,A
//  172     B_LUX30_SCL0_L;                       //拉低时钟线
        CLR     0x90.2
//  173     B_LUX30_Delay5us();             	//延时
        ; Setup parameters for call to function B_LUX30_Delay5us
        LCALL   ??B_LUX30_Delay5us?relay
//  174     
//  175 	
//  176   }
        DEC     R7
        MOV     A,R7
        JNZ     ??B_LUX30_RecvByte_0
//  177   B_LUX30_SDA0_O;
        ORL     0xfe,#0x8
//  178   
//  179   return dat;
        MOV     A,R6
        LJMP    ?Subroutine1 & 0xFFFF
        CFI EndBlock cfiBlock23
        REQUIRE P1DIR
        REQUIRE _A_P1
//  180 }
//  181 
//  182 /*---------------------------------------------------------------------
//  183  功能描述: 写B_LUX30
//  184  参数说明: REG_Address - 寄存器地址
//  185  函数返回: 无
//  186  ---------------------------------------------------------------------*/

        RSEG BANKED_CODE:CODE:NOROOT(0)
//  187 void B_LUX30_Multiple_Write(uint8 REG_Address, uint8* vBuf, uint8 vLen)
B_LUX30_Multiple_Write:
        CFI Block cfiBlock24 Using cfiCommon0
        CFI Function B_LUX30_Multiple_Write
        CODE
//  188 {
        FUNCALL B_LUX30_Multiple_Write, B_LUX30_Start
        LOCFRAME ISTACK, 0, STACK
        LOCFRAME PSTACK, 0, STACK
        LOCFRAME XSTACK, 13, STACK
        LOCFRAME IOVERLAY, 0, STATIC
        LOCFRAME DOVERLAY, 0, STATIC
        ARGFRAME ISTACK, 0, STACK
        ARGFRAME PSTACK, 0, STACK
        ARGFRAME XSTACK, 13, STACK
        ARGFRAME IOVERLAY, 0, STATIC
        ARGFRAME DOVERLAY, 0, STATIC
        FUNCALL B_LUX30_Multiple_Write, B_LUX30_SendByte
        LOCFRAME ISTACK, 0, STACK
        LOCFRAME PSTACK, 0, STACK
        LOCFRAME XSTACK, 13, STACK
        LOCFRAME IOVERLAY, 0, STATIC
        LOCFRAME DOVERLAY, 0, STATIC
        ARGFRAME ISTACK, 0, STACK
        ARGFRAME PSTACK, 0, STACK
        ARGFRAME XSTACK, 13, STACK
        ARGFRAME IOVERLAY, 0, STATIC
        ARGFRAME DOVERLAY, 0, STATIC
        FUNCALL B_LUX30_Multiple_Write, B_LUX30_SendByte
        LOCFRAME ISTACK, 0, STACK
        LOCFRAME PSTACK, 0, STACK
        LOCFRAME XSTACK, 13, STACK
        LOCFRAME IOVERLAY, 0, STATIC
        LOCFRAME DOVERLAY, 0, STATIC
        ARGFRAME ISTACK, 0, STACK
        ARGFRAME PSTACK, 0, STACK
        ARGFRAME XSTACK, 13, STACK
        ARGFRAME IOVERLAY, 0, STATIC
        ARGFRAME DOVERLAY, 0, STATIC
        FUNCALL B_LUX30_Multiple_Write, B_LUX30_SendByte
        LOCFRAME ISTACK, 0, STACK
        LOCFRAME PSTACK, 0, STACK
        LOCFRAME XSTACK, 13, STACK
        LOCFRAME IOVERLAY, 0, STATIC
        LOCFRAME DOVERLAY, 0, STATIC
        ARGFRAME ISTACK, 0, STACK
        ARGFRAME PSTACK, 0, STACK
        ARGFRAME XSTACK, 13, STACK
        ARGFRAME IOVERLAY, 0, STATIC
        ARGFRAME DOVERLAY, 0, STATIC
        FUNCALL B_LUX30_Multiple_Write, B_LUX30_Stop
        LOCFRAME ISTACK, 0, STACK
        LOCFRAME PSTACK, 0, STACK
        LOCFRAME XSTACK, 13, STACK
        LOCFRAME IOVERLAY, 0, STATIC
        LOCFRAME DOVERLAY, 0, STATIC
        ARGFRAME ISTACK, 0, STACK
        ARGFRAME PSTACK, 0, STACK
        ARGFRAME XSTACK, 13, STACK
        ARGFRAME IOVERLAY, 0, STATIC
        ARGFRAME DOVERLAY, 0, STATIC
        MOV     A,#-0xd
        LCALL   ?BANKED_ENTER_XDATA
        CFI DPH0 load(1, XDATA, add(CFA_XSP16, literal(-1)))
        CFI DPL0 load(1, XDATA, add(CFA_XSP16, literal(-2)))
        CFI ?BRET_EXT load(1, XDATA, add(CFA_XSP16, literal(-3)))
        CFI ?RET_HIGH load(1, XDATA, add(CFA_XSP16, literal(-4)))
        CFI ?RET_LOW load(1, XDATA, add(CFA_XSP16, literal(-5)))
        CFI R7 load(1, XDATA, add(CFA_XSP16, literal(-6)))
        CFI V4 load(1, XDATA, add(CFA_XSP16, literal(-7)))
        CFI V3 load(1, XDATA, add(CFA_XSP16, literal(-8)))
        CFI V2 load(1, XDATA, add(CFA_XSP16, literal(-9)))
        CFI V1 load(1, XDATA, add(CFA_XSP16, literal(-10)))
        CFI V0 load(1, XDATA, add(CFA_XSP16, literal(-11)))
        CFI VB load(1, XDATA, add(CFA_XSP16, literal(-12)))
        CFI R6 load(1, XDATA, add(CFA_XSP16, literal(-13)))
        CFI CFA_SP SP+0
        CFI CFA_XSP16 add(XSP16, 13)
        ; Saved register size: 13
        ; Auto size: 0
        LCALL   ?Subroutine4 & 0xFFFF
//  189   uint8 i = 0;
//  190    //---------------------------写程序
//  191   B_LUX30_Start();                                  //起始信号
//  192   B_LUX30_SendByte(B_LUX30_SlaveAddress+0);         //发送设备地址+读信号
//  193   B_LUX30_SendByte(REG_Address);                    //写地址
??CrossCallReturnLabel_2:
        LCALL   ??B_LUX30_SendByte?relay
//  194   for (i=0; i<=vLen; i++)                           //循环写数据
        MOV     ?V0 + 3,#0x0
//  195   {
//  196     B_LUX30_SendByte(vBuf[i]);                      //写数据
??B_LUX30_Multiple_Write_0:
        ; Setup parameters for call to function B_LUX30_SendByte
        LCALL   ?Subroutine7 & 0xFFFF
//  197   }
??CrossCallReturnLabel_8:
        MOVX    A,@DPTR
        MOV     R1,A
        LCALL   ??B_LUX30_SendByte?relay
        INC     ?V0 + 3
        MOV     A,?V0 + 4
        CLR     C
        SUBB    A,?V0 + 3
        JNC     ??B_LUX30_Multiple_Write_0
        CFI EndBlock cfiBlock24
//  198   B_LUX30_Stop();                                   //停止信号
        ; Setup parameters for call to function B_LUX30_Stop
        REQUIRE ?Subroutine2
        ; // Fall through to label ?Subroutine2
//  199   //---------------------------
//  200   
//  201 }

        RSEG BANKED_CODE:CODE:NOROOT(0)
?Subroutine2:
        CFI Block cfiBlock25 Using cfiCommon0
        CFI NoFunction
        CFI CFA_SP SP+0
        CFI CFA_XSP16 add(XSP16, 13)
        CFI VB load(1, XDATA, add(CFA_XSP16, literal(-12)))
        CFI DPL0 load(1, XDATA, add(CFA_XSP16, literal(-2)))
        CFI DPH0 load(1, XDATA, add(CFA_XSP16, literal(-1)))
        CFI R6 load(1, XDATA, add(CFA_XSP16, literal(-13)))
        CFI R7 load(1, XDATA, add(CFA_XSP16, literal(-6)))
        CFI V0 load(1, XDATA, add(CFA_XSP16, literal(-11)))
        CFI V1 load(1, XDATA, add(CFA_XSP16, literal(-10)))
        CFI V2 load(1, XDATA, add(CFA_XSP16, literal(-9)))
        CFI V3 load(1, XDATA, add(CFA_XSP16, literal(-8)))
        CFI V4 load(1, XDATA, add(CFA_XSP16, literal(-7)))
        CFI ?BRET_EXT load(1, XDATA, add(CFA_XSP16, literal(-3)))
        CFI ?RET_HIGH load(1, XDATA, add(CFA_XSP16, literal(-4)))
        CFI ?RET_LOW load(1, XDATA, add(CFA_XSP16, literal(-5)))
        LCALL   ??B_LUX30_Stop?relay
        MOV     R7,#0x5
        LJMP    ?BANKED_LEAVE_XDATA
        CFI EndBlock cfiBlock25
//  202 
//  203 /*---------------------------------------------------------------------
//  204  功能描述: 读B_LUX30
//  205  参数说明: REG_Address - 寄存器地址
//  206  函数返回: 无
//  207  ---------------------------------------------------------------------*/

        RSEG BANKED_CODE:CODE:NOROOT(0)
//  208 void B_LUX30_Multiple_read(uint8 REG_Address, uint8* vBuf, uint8 vLen)
B_LUX30_Multiple_read:
        CFI Block cfiBlock26 Using cfiCommon0
        CFI Function B_LUX30_Multiple_read
        CODE
//  209 {
        FUNCALL B_LUX30_Multiple_read, B_LUX30_Start
        LOCFRAME ISTACK, 0, STACK
        LOCFRAME PSTACK, 0, STACK
        LOCFRAME XSTACK, 13, STACK
        LOCFRAME IOVERLAY, 0, STATIC
        LOCFRAME DOVERLAY, 0, STATIC
        ARGFRAME ISTACK, 0, STACK
        ARGFRAME PSTACK, 0, STACK
        ARGFRAME XSTACK, 13, STACK
        ARGFRAME IOVERLAY, 0, STATIC
        ARGFRAME DOVERLAY, 0, STATIC
        FUNCALL B_LUX30_Multiple_read, B_LUX30_SendByte
        LOCFRAME ISTACK, 0, STACK
        LOCFRAME PSTACK, 0, STACK
        LOCFRAME XSTACK, 13, STACK
        LOCFRAME IOVERLAY, 0, STATIC
        LOCFRAME DOVERLAY, 0, STATIC
        ARGFRAME ISTACK, 0, STACK
        ARGFRAME PSTACK, 0, STACK
        ARGFRAME XSTACK, 13, STACK
        ARGFRAME IOVERLAY, 0, STATIC
        ARGFRAME DOVERLAY, 0, STATIC
        FUNCALL B_LUX30_Multiple_read, B_LUX30_SendByte
        LOCFRAME ISTACK, 0, STACK
        LOCFRAME PSTACK, 0, STACK
        LOCFRAME XSTACK, 13, STACK
        LOCFRAME IOVERLAY, 0, STATIC
        LOCFRAME DOVERLAY, 0, STATIC
        ARGFRAME ISTACK, 0, STACK
        ARGFRAME PSTACK, 0, STACK
        ARGFRAME XSTACK, 13, STACK
        ARGFRAME IOVERLAY, 0, STATIC
        ARGFRAME DOVERLAY, 0, STATIC
        FUNCALL B_LUX30_Multiple_read, B_LUX30_Start
        LOCFRAME ISTACK, 0, STACK
        LOCFRAME PSTACK, 0, STACK
        LOCFRAME XSTACK, 13, STACK
        LOCFRAME IOVERLAY, 0, STATIC
        LOCFRAME DOVERLAY, 0, STATIC
        ARGFRAME ISTACK, 0, STACK
        ARGFRAME PSTACK, 0, STACK
        ARGFRAME XSTACK, 13, STACK
        ARGFRAME IOVERLAY, 0, STATIC
        ARGFRAME DOVERLAY, 0, STATIC
        FUNCALL B_LUX30_Multiple_read, B_LUX30_SendByte
        LOCFRAME ISTACK, 0, STACK
        LOCFRAME PSTACK, 0, STACK
        LOCFRAME XSTACK, 13, STACK
        LOCFRAME IOVERLAY, 0, STATIC
        LOCFRAME DOVERLAY, 0, STATIC
        ARGFRAME ISTACK, 0, STACK
        ARGFRAME PSTACK, 0, STACK
        ARGFRAME XSTACK, 13, STACK
        ARGFRAME IOVERLAY, 0, STATIC
        ARGFRAME DOVERLAY, 0, STATIC
        FUNCALL B_LUX30_Multiple_read, B_LUX30_delay_nms
        LOCFRAME ISTACK, 0, STACK
        LOCFRAME PSTACK, 0, STACK
        LOCFRAME XSTACK, 13, STACK
        LOCFRAME IOVERLAY, 0, STATIC
        LOCFRAME DOVERLAY, 0, STATIC
        ARGFRAME ISTACK, 0, STACK
        ARGFRAME PSTACK, 0, STACK
        ARGFRAME XSTACK, 13, STACK
        ARGFRAME IOVERLAY, 0, STATIC
        ARGFRAME DOVERLAY, 0, STATIC
        FUNCALL B_LUX30_Multiple_read, B_LUX30_RecvByte
        LOCFRAME ISTACK, 0, STACK
        LOCFRAME PSTACK, 0, STACK
        LOCFRAME XSTACK, 13, STACK
        LOCFRAME IOVERLAY, 0, STATIC
        LOCFRAME DOVERLAY, 0, STATIC
        ARGFRAME ISTACK, 0, STACK
        ARGFRAME PSTACK, 0, STACK
        ARGFRAME XSTACK, 13, STACK
        ARGFRAME IOVERLAY, 0, STATIC
        ARGFRAME DOVERLAY, 0, STATIC
        FUNCALL B_LUX30_Multiple_read, B_LUX30_SendACK
        LOCFRAME ISTACK, 0, STACK
        LOCFRAME PSTACK, 0, STACK
        LOCFRAME XSTACK, 13, STACK
        LOCFRAME IOVERLAY, 0, STATIC
        LOCFRAME DOVERLAY, 0, STATIC
        ARGFRAME ISTACK, 0, STACK
        ARGFRAME PSTACK, 0, STACK
        ARGFRAME XSTACK, 13, STACK
        ARGFRAME IOVERLAY, 0, STATIC
        ARGFRAME DOVERLAY, 0, STATIC
        FUNCALL B_LUX30_Multiple_read, B_LUX30_SendACK
        LOCFRAME ISTACK, 0, STACK
        LOCFRAME PSTACK, 0, STACK
        LOCFRAME XSTACK, 13, STACK
        LOCFRAME IOVERLAY, 0, STATIC
        LOCFRAME DOVERLAY, 0, STATIC
        ARGFRAME ISTACK, 0, STACK
        ARGFRAME PSTACK, 0, STACK
        ARGFRAME XSTACK, 13, STACK
        ARGFRAME IOVERLAY, 0, STATIC
        ARGFRAME DOVERLAY, 0, STATIC
        FUNCALL B_LUX30_Multiple_read, B_LUX30_Stop
        LOCFRAME ISTACK, 0, STACK
        LOCFRAME PSTACK, 0, STACK
        LOCFRAME XSTACK, 13, STACK
        LOCFRAME IOVERLAY, 0, STATIC
        LOCFRAME DOVERLAY, 0, STATIC
        ARGFRAME ISTACK, 0, STACK
        ARGFRAME PSTACK, 0, STACK
        ARGFRAME XSTACK, 13, STACK
        ARGFRAME IOVERLAY, 0, STATIC
        ARGFRAME DOVERLAY, 0, STATIC
        MOV     A,#-0xd
        LCALL   ?BANKED_ENTER_XDATA
        CFI DPH0 load(1, XDATA, add(CFA_XSP16, literal(-1)))
        CFI DPL0 load(1, XDATA, add(CFA_XSP16, literal(-2)))
        CFI ?BRET_EXT load(1, XDATA, add(CFA_XSP16, literal(-3)))
        CFI ?RET_HIGH load(1, XDATA, add(CFA_XSP16, literal(-4)))
        CFI ?RET_LOW load(1, XDATA, add(CFA_XSP16, literal(-5)))
        CFI R7 load(1, XDATA, add(CFA_XSP16, literal(-6)))
        CFI V4 load(1, XDATA, add(CFA_XSP16, literal(-7)))
        CFI V3 load(1, XDATA, add(CFA_XSP16, literal(-8)))
        CFI V2 load(1, XDATA, add(CFA_XSP16, literal(-9)))
        CFI V1 load(1, XDATA, add(CFA_XSP16, literal(-10)))
        CFI V0 load(1, XDATA, add(CFA_XSP16, literal(-11)))
        CFI VB load(1, XDATA, add(CFA_XSP16, literal(-12)))
        CFI R6 load(1, XDATA, add(CFA_XSP16, literal(-13)))
        CFI CFA_SP SP+0
        CFI CFA_XSP16 add(XSP16, 13)
        ; Saved register size: 13
        ; Auto size: 0
        LCALL   ?Subroutine4 & 0xFFFF
//  210   uint8 i = 0;
//  211   //---------------------------读程序
//  212   B_LUX30_Start();                                //起始信号
//  213   B_LUX30_SendByte(B_LUX30_SlaveAddress+0);       //发送设备地址+读信号
//  214   B_LUX30_SendByte(REG_Address);                  //从0x00地址开始读取光照值
??CrossCallReturnLabel_3:
        LCALL   ?Subroutine3 & 0xFFFF
//  215  
//  216   B_LUX30_Start();                                //起始信号
//  217   B_LUX30_SendByte(B_LUX30_SlaveAddress+1);       //发送设备地址+读信号
//  218   B_LUX30_delay_nms(1);                           //延时180ms
//  219   for (i=0; i<=vLen; i++)                            //连续读取4个地址数据，存储中BUF
??CrossCallReturnLabel_0:
        MOV     ?V0 + 3,#0x0
//  220   {
//  221     vBuf[i] = B_LUX30_RecvByte();                //BUF[0]存储0x32地址中的数据
??B_LUX30_Multiple_read_0:
        ; Setup parameters for call to function B_LUX30_RecvByte
        LCALL   ??B_LUX30_RecvByte?relay
        LCALL   ?Subroutine7 & 0xFFFF
??CrossCallReturnLabel_9:
        MOV     A,R1
        MOVX    @DPTR,A
//  222     if (i == vLen)
        MOV     A,?V0 + 4
        XRL     A,?V0 + 3
        JNZ     ??B_LUX30_Multiple_read_1
//  223     {
//  224       
//  225       B_LUX30_SendACK(1);                         //最后一个数据需要回NOACK
        ; Setup parameters for call to function B_LUX30_SendACK
        MOV     R1,#0x1
        SJMP    ??B_LUX30_Multiple_read_2
//  226     }
//  227     else
//  228     {		
//  229       B_LUX30_SendACK(0);                         //回应ACK
??B_LUX30_Multiple_read_1:
        ; Setup parameters for call to function B_LUX30_SendACK
        MOV     R1,#0x0
??B_LUX30_Multiple_read_2:
        LCALL   ??B_LUX30_SendACK?relay
//  230     }
//  231   }
        INC     ?V0 + 3
        MOV     A,?V0 + 4
        CLR     C
        SUBB    A,?V0 + 3
        JNC     ??B_LUX30_Multiple_read_0
//  232   B_LUX30_Stop();                                 //停止信号
        ; Setup parameters for call to function B_LUX30_Stop
        SJMP    ?Subroutine2
        CFI EndBlock cfiBlock26
//  233   
//  234   //---------------------------
//  235 }

        RSEG BANKED_CODE:CODE:NOROOT(0)
?Subroutine7:
        CFI Block cfiCond27 Using cfiCommon0
        CFI NoFunction
        CFI Conditional ??CrossCallReturnLabel_8
        CFI R6 load(1, XDATA, add(CFA_XSP16, literal(-13)))
        CFI VB load(1, XDATA, add(CFA_XSP16, literal(-12)))
        CFI V0 load(1, XDATA, add(CFA_XSP16, literal(-11)))
        CFI V1 load(1, XDATA, add(CFA_XSP16, literal(-10)))
        CFI V2 load(1, XDATA, add(CFA_XSP16, literal(-9)))
        CFI V3 load(1, XDATA, add(CFA_XSP16, literal(-8)))
        CFI V4 load(1, XDATA, add(CFA_XSP16, literal(-7)))
        CFI R7 load(1, XDATA, add(CFA_XSP16, literal(-6)))
        CFI ?RET_LOW load(1, XDATA, add(CFA_XSP16, literal(-5)))
        CFI ?RET_HIGH load(1, XDATA, add(CFA_XSP16, literal(-4)))
        CFI ?BRET_EXT load(1, XDATA, add(CFA_XSP16, literal(-3)))
        CFI DPL0 load(1, XDATA, add(CFA_XSP16, literal(-2)))
        CFI DPH0 load(1, XDATA, add(CFA_XSP16, literal(-1)))
        CFI CFA_SP SP+0
        CFI CFA_XSP16 add(XSP16, 13)
        CFI Block cfiCond28 Using cfiCommon0
        CFI (cfiCond28) NoFunction
        CFI (cfiCond28) Conditional ??CrossCallReturnLabel_9
        CFI (cfiCond28) R6 load(1, XDATA, add(CFA_XSP16, literal(-13)))
        CFI (cfiCond28) VB load(1, XDATA, add(CFA_XSP16, literal(-12)))
        CFI (cfiCond28) V0 load(1, XDATA, add(CFA_XSP16, literal(-11)))
        CFI (cfiCond28) V1 load(1, XDATA, add(CFA_XSP16, literal(-10)))
        CFI (cfiCond28) V2 load(1, XDATA, add(CFA_XSP16, literal(-9)))
        CFI (cfiCond28) V3 load(1, XDATA, add(CFA_XSP16, literal(-8)))
        CFI (cfiCond28) V4 load(1, XDATA, add(CFA_XSP16, literal(-7)))
        CFI (cfiCond28) R7 load(1, XDATA, add(CFA_XSP16, literal(-6)))
        CFI (cfiCond28) ?RET_LOW load(1, XDATA, add(CFA_XSP16, literal(-5)))
        CFI (cfiCond28) ?RET_HIGH load(1, XDATA, add(CFA_XSP16, literal(-4)))
        CFI (cfiCond28) ?BRET_EXT load(1, XDATA, add(CFA_XSP16, literal(-3)))
        CFI (cfiCond28) DPL0 load(1, XDATA, add(CFA_XSP16, literal(-2)))
        CFI (cfiCond28) DPH0 load(1, XDATA, add(CFA_XSP16, literal(-1)))
        CFI (cfiCond28) CFA_SP SP+0
        CFI (cfiCond28) CFA_XSP16 add(XSP16, 13)
        CFI Block cfiPicker29 Using cfiCommon1
        CFI (cfiPicker29) NoFunction
        CFI (cfiPicker29) Picker
        MOV     ?V0 + 0,?V0 + 3
        MOV     A,R6
        ADD     A,?V0 + 0
        MOV     DPL,A
        MOV     A,R7
        ADDC    A,#0x0
        MOV     DPH,A
        RET
        CFI EndBlock cfiCond27
        CFI EndBlock cfiCond28
        CFI EndBlock cfiPicker29

        RSEG BANKED_CODE:CODE:NOROOT(0)
?Subroutine4:
        CFI Block cfiCond30 Using cfiCommon0
        CFI NoFunction
        CFI Conditional ??CrossCallReturnLabel_2
        CFI R6 load(1, XDATA, add(CFA_XSP16, literal(-13)))
        CFI VB load(1, XDATA, add(CFA_XSP16, literal(-12)))
        CFI V0 load(1, XDATA, add(CFA_XSP16, literal(-11)))
        CFI V1 load(1, XDATA, add(CFA_XSP16, literal(-10)))
        CFI V2 load(1, XDATA, add(CFA_XSP16, literal(-9)))
        CFI V3 load(1, XDATA, add(CFA_XSP16, literal(-8)))
        CFI V4 load(1, XDATA, add(CFA_XSP16, literal(-7)))
        CFI R7 load(1, XDATA, add(CFA_XSP16, literal(-6)))
        CFI ?RET_LOW load(1, XDATA, add(CFA_XSP16, literal(-5)))
        CFI ?RET_HIGH load(1, XDATA, add(CFA_XSP16, literal(-4)))
        CFI ?BRET_EXT load(1, XDATA, add(CFA_XSP16, literal(-3)))
        CFI DPL0 load(1, XDATA, add(CFA_XSP16, literal(-2)))
        CFI DPH0 load(1, XDATA, add(CFA_XSP16, literal(-1)))
        CFI CFA_SP SP+0
        CFI CFA_XSP16 add(XSP16, 13)
        CFI Block cfiCond31 Using cfiCommon0
        CFI (cfiCond31) NoFunction
        CFI (cfiCond31) Conditional ??CrossCallReturnLabel_3
        CFI (cfiCond31) R6 load(1, XDATA, add(CFA_XSP16, literal(-13)))
        CFI (cfiCond31) VB load(1, XDATA, add(CFA_XSP16, literal(-12)))
        CFI (cfiCond31) V0 load(1, XDATA, add(CFA_XSP16, literal(-11)))
        CFI (cfiCond31) V1 load(1, XDATA, add(CFA_XSP16, literal(-10)))
        CFI (cfiCond31) V2 load(1, XDATA, add(CFA_XSP16, literal(-9)))
        CFI (cfiCond31) V3 load(1, XDATA, add(CFA_XSP16, literal(-8)))
        CFI (cfiCond31) V4 load(1, XDATA, add(CFA_XSP16, literal(-7)))
        CFI (cfiCond31) R7 load(1, XDATA, add(CFA_XSP16, literal(-6)))
        CFI (cfiCond31) ?RET_LOW load(1, XDATA, add(CFA_XSP16, literal(-5)))
        CFI (cfiCond31) ?RET_HIGH load(1, XDATA, add(CFA_XSP16, literal(-4)))
        CFI (cfiCond31) ?BRET_EXT load(1, XDATA, add(CFA_XSP16, literal(-3)))
        CFI (cfiCond31) DPL0 load(1, XDATA, add(CFA_XSP16, literal(-2)))
        CFI (cfiCond31) DPH0 load(1, XDATA, add(CFA_XSP16, literal(-1)))
        CFI (cfiCond31) CFA_SP SP+0
        CFI (cfiCond31) CFA_XSP16 add(XSP16, 13)
        CFI Block cfiPicker32 Using cfiCommon1
        CFI (cfiPicker32) NoFunction
        CFI (cfiPicker32) Picker
        MOV     ?V0 + 2,R1
        MOV     A,R2
        MOV     R6,A
        MOV     A,R3
        MOV     R7,A
        MOV     ?V0 + 4,R4
        ; Setup parameters for call to function B_LUX30_Start
        ; Setup parameters for call to function B_LUX30_Start
        LCALL   ?Subroutine9 & 0xFFFF
??CrossCallReturnLabel_14:
        ; Setup parameters for call to function B_LUX30_SendByte
        ; Setup parameters for call to function B_LUX30_SendByte
        MOV     R1,?V0 + 2
        RET
        CFI EndBlock cfiCond30
        CFI EndBlock cfiCond31
        CFI EndBlock cfiPicker32
//  236 
//  237 /*---------------------------------------------------------------------
//  238  功能描述: 初始化光照传感器
//  239  参数说明: 无
//  240  函数返回: 无
//  241  ---------------------------------------------------------------------*/

        RSEG BANKED_CODE:CODE:NOROOT(0)
//  242 void B_LUX30_Init()
B_LUX30_Init:
        CFI Block cfiBlock33 Using cfiCommon0
        CFI Function B_LUX30_Init
        CODE
//  243 {
        ; Saved register size: 0
        ; Auto size: 0
//  244   P1SEL &= ~(0x0C);		//选择IO口
        ANL     0xf4,#0xf3
//  245   
//  246   B_LUX30_SCL0_O;
        ORL     0xfe,#0x4
//  247   B_LUX30_SDA0_O;
        ORL     0xfe,#0x8
//  248   
//  249 }
        LJMP    ?BRET
        CFI EndBlock cfiBlock33
        REQUIRE P1SEL
        REQUIRE P1DIR
//  250 
//  251 /*---------------------------------------------------------------------
//  252  功能描述: 光照读取函数
//  253  参数说明: 无
//  254  函数返回: 返回光照值
//  255  ---------------------------------------------------------------------*/

        RSEG BANKED_CODE:CODE:NOROOT(0)
//  256 uint32 B_LUX30_GetLux()
B_LUX30_GetLux:
        CFI Block cfiBlock34 Using cfiCommon0
        CFI Function B_LUX30_GetLux
        CODE
//  257 {  
        FUNCALL B_LUX30_GetLux, B_LUX30_Start
        LOCFRAME ISTACK, 0, STACK
        LOCFRAME PSTACK, 0, STACK
        LOCFRAME XSTACK, 16, STACK
        LOCFRAME IOVERLAY, 0, STATIC
        LOCFRAME DOVERLAY, 0, STATIC
        ARGFRAME ISTACK, 0, STACK
        ARGFRAME PSTACK, 0, STACK
        ARGFRAME XSTACK, 16, STACK
        ARGFRAME IOVERLAY, 0, STATIC
        ARGFRAME DOVERLAY, 0, STATIC
        FUNCALL B_LUX30_GetLux, B_LUX30_SendByte
        LOCFRAME ISTACK, 0, STACK
        LOCFRAME PSTACK, 0, STACK
        LOCFRAME XSTACK, 16, STACK
        LOCFRAME IOVERLAY, 0, STATIC
        LOCFRAME DOVERLAY, 0, STATIC
        ARGFRAME ISTACK, 0, STACK
        ARGFRAME PSTACK, 0, STACK
        ARGFRAME XSTACK, 16, STACK
        ARGFRAME IOVERLAY, 0, STATIC
        ARGFRAME DOVERLAY, 0, STATIC
        FUNCALL B_LUX30_GetLux, B_LUX30_SendByte
        LOCFRAME ISTACK, 0, STACK
        LOCFRAME PSTACK, 0, STACK
        LOCFRAME XSTACK, 16, STACK
        LOCFRAME IOVERLAY, 0, STATIC
        LOCFRAME DOVERLAY, 0, STATIC
        ARGFRAME ISTACK, 0, STACK
        ARGFRAME PSTACK, 0, STACK
        ARGFRAME XSTACK, 16, STACK
        ARGFRAME IOVERLAY, 0, STATIC
        ARGFRAME DOVERLAY, 0, STATIC
        FUNCALL B_LUX30_GetLux, B_LUX30_Start
        LOCFRAME ISTACK, 0, STACK
        LOCFRAME PSTACK, 0, STACK
        LOCFRAME XSTACK, 16, STACK
        LOCFRAME IOVERLAY, 0, STATIC
        LOCFRAME DOVERLAY, 0, STATIC
        ARGFRAME ISTACK, 0, STACK
        ARGFRAME PSTACK, 0, STACK
        ARGFRAME XSTACK, 16, STACK
        ARGFRAME IOVERLAY, 0, STATIC
        ARGFRAME DOVERLAY, 0, STATIC
        FUNCALL B_LUX30_GetLux, B_LUX30_SendByte
        LOCFRAME ISTACK, 0, STACK
        LOCFRAME PSTACK, 0, STACK
        LOCFRAME XSTACK, 16, STACK
        LOCFRAME IOVERLAY, 0, STATIC
        LOCFRAME DOVERLAY, 0, STATIC
        ARGFRAME ISTACK, 0, STACK
        ARGFRAME PSTACK, 0, STACK
        ARGFRAME XSTACK, 16, STACK
        ARGFRAME IOVERLAY, 0, STATIC
        ARGFRAME DOVERLAY, 0, STATIC
        FUNCALL B_LUX30_GetLux, B_LUX30_delay_nms
        LOCFRAME ISTACK, 0, STACK
        LOCFRAME PSTACK, 0, STACK
        LOCFRAME XSTACK, 16, STACK
        LOCFRAME IOVERLAY, 0, STATIC
        LOCFRAME DOVERLAY, 0, STATIC
        ARGFRAME ISTACK, 0, STACK
        ARGFRAME PSTACK, 0, STACK
        ARGFRAME XSTACK, 16, STACK
        ARGFRAME IOVERLAY, 0, STATIC
        ARGFRAME DOVERLAY, 0, STATIC
        FUNCALL B_LUX30_GetLux, B_LUX30_RecvByte
        LOCFRAME ISTACK, 0, STACK
        LOCFRAME PSTACK, 0, STACK
        LOCFRAME XSTACK, 16, STACK
        LOCFRAME IOVERLAY, 0, STATIC
        LOCFRAME DOVERLAY, 0, STATIC
        ARGFRAME ISTACK, 0, STACK
        ARGFRAME PSTACK, 0, STACK
        ARGFRAME XSTACK, 16, STACK
        ARGFRAME IOVERLAY, 0, STATIC
        ARGFRAME DOVERLAY, 0, STATIC
        FUNCALL B_LUX30_GetLux, B_LUX30_SendACK
        LOCFRAME ISTACK, 0, STACK
        LOCFRAME PSTACK, 0, STACK
        LOCFRAME XSTACK, 16, STACK
        LOCFRAME IOVERLAY, 0, STATIC
        LOCFRAME DOVERLAY, 0, STATIC
        ARGFRAME ISTACK, 0, STACK
        ARGFRAME PSTACK, 0, STACK
        ARGFRAME XSTACK, 16, STACK
        ARGFRAME IOVERLAY, 0, STATIC
        ARGFRAME DOVERLAY, 0, STATIC
        FUNCALL B_LUX30_GetLux, B_LUX30_SendACK
        LOCFRAME ISTACK, 0, STACK
        LOCFRAME PSTACK, 0, STACK
        LOCFRAME XSTACK, 16, STACK
        LOCFRAME IOVERLAY, 0, STATIC
        LOCFRAME DOVERLAY, 0, STATIC
        ARGFRAME ISTACK, 0, STACK
        ARGFRAME PSTACK, 0, STACK
        ARGFRAME XSTACK, 16, STACK
        ARGFRAME IOVERLAY, 0, STATIC
        ARGFRAME DOVERLAY, 0, STATIC
        FUNCALL B_LUX30_GetLux, B_LUX30_Stop
        LOCFRAME ISTACK, 0, STACK
        LOCFRAME PSTACK, 0, STACK
        LOCFRAME XSTACK, 16, STACK
        LOCFRAME IOVERLAY, 0, STATIC
        LOCFRAME DOVERLAY, 0, STATIC
        ARGFRAME ISTACK, 0, STACK
        ARGFRAME PSTACK, 0, STACK
        ARGFRAME XSTACK, 16, STACK
        ARGFRAME IOVERLAY, 0, STATIC
        ARGFRAME DOVERLAY, 0, STATIC
        MOV     A,#-0x10
        LCALL   ?BANKED_ENTER_XDATA
        CFI DPH0 load(1, XDATA, add(CFA_XSP16, literal(-1)))
        CFI DPL0 load(1, XDATA, add(CFA_XSP16, literal(-2)))
        CFI ?BRET_EXT load(1, XDATA, add(CFA_XSP16, literal(-3)))
        CFI ?RET_HIGH load(1, XDATA, add(CFA_XSP16, literal(-4)))
        CFI ?RET_LOW load(1, XDATA, add(CFA_XSP16, literal(-5)))
        CFI R7 load(1, XDATA, add(CFA_XSP16, literal(-6)))
        CFI V7 load(1, XDATA, add(CFA_XSP16, literal(-7)))
        CFI V6 load(1, XDATA, add(CFA_XSP16, literal(-8)))
        CFI V5 load(1, XDATA, add(CFA_XSP16, literal(-9)))
        CFI V4 load(1, XDATA, add(CFA_XSP16, literal(-10)))
        CFI V3 load(1, XDATA, add(CFA_XSP16, literal(-11)))
        CFI V2 load(1, XDATA, add(CFA_XSP16, literal(-12)))
        CFI V1 load(1, XDATA, add(CFA_XSP16, literal(-13)))
        CFI V0 load(1, XDATA, add(CFA_XSP16, literal(-14)))
        CFI VB load(1, XDATA, add(CFA_XSP16, literal(-15)))
        CFI R6 load(1, XDATA, add(CFA_XSP16, literal(-16)))
        CFI CFA_SP SP+0
        CFI CFA_XSP16 add(XSP16, 16)
        ; Saved register size: 16
        ; Auto size: 0
//  258   uint32 val32 = 0;
//  259   fint32 temp;
//  260   uint8  i = 0;
//  261   
//  262 
//  263   //---------------------------读程序
//  264   B_LUX30_Start();                                //起始信号
        ; Setup parameters for call to function B_LUX30_Start
        LCALL   ?Subroutine9 & 0xFFFF
//  265   B_LUX30_SendByte(B_LUX30_SlaveAddress+0);       //发送设备地址+读信号
//  266   B_LUX30_SendByte(0x00);                         //从0x00地址开始读取光照值
??CrossCallReturnLabel_15:
        ; Setup parameters for call to function B_LUX30_SendByte
        MOV     R1,#0x0
        LCALL   ?Subroutine3 & 0xFFFF
//  267  
//  268   B_LUX30_Start();                                //起始信号
//  269   B_LUX30_SendByte(B_LUX30_SlaveAddress+1);       //发送设备地址+读信号
//  270   B_LUX30_delay_nms(1);                           //延时180ms
//  271   for (i=0; i<=3; i++)                            //连续读取4个地址数据，存储中BUF
??CrossCallReturnLabel_1:
        MOV     R6,#0x0
//  272   {
//  273     m_BUF[i] = B_LUX30_RecvByte();                //BUF[0]存储0x32地址中的数据
??B_LUX30_GetLux_0:
        ; Setup parameters for call to function B_LUX30_RecvByte
        LCALL   ??B_LUX30_RecvByte?relay
        MOV     ?V0 + 0,R6
        MOV     A,#m_BUF & 0xff
        ADD     A,?V0 + 0
        MOV     DPL,A
        MOV     A,#(m_BUF >> 8) & 0xff
        ADDC    A,#0x0
        MOV     DPH,A
        MOV     A,R1
        MOVX    @DPTR,A
//  274     if (i == 3)
        MOV     A,#0x3
        XRL     A,R6
        JNZ     ??B_LUX30_GetLux_1
//  275     {
//  276       
//  277       B_LUX30_SendACK(1);                         //最后一个数据需要回NOACK
        ; Setup parameters for call to function B_LUX30_SendACK
        MOV     R1,#0x1
        SJMP    ??B_LUX30_GetLux_2
//  278     }
//  279     else
//  280     {		
//  281       B_LUX30_SendACK(0);                         //回应ACK
??B_LUX30_GetLux_1:
        ; Setup parameters for call to function B_LUX30_SendACK
        MOV     R1,#0x0
??B_LUX30_GetLux_2:
        LCALL   ??B_LUX30_SendACK?relay
//  282     }
//  283   }
        INC     R6
        MOV     A,R6
        CLR     C
        SUBB    A,#0x4
        JC      ??B_LUX30_GetLux_0
//  284   B_LUX30_Stop();                                 //停止信号
        ; Setup parameters for call to function B_LUX30_Stop
        LCALL   ??B_LUX30_Stop?relay
//  285   
//  286   //---------------------------
//  287   
//  288   val32   = m_BUF[3];
//  289   val32 <<= 8;
//  290   val32  |= m_BUF[2];
//  291   val32 <<= 8;
//  292   val32  |= m_BUF[1];
//  293   val32 <<= 8;
//  294   val32  |= m_BUF[0];
//  295   
//  296   temp = (fint32)val32*1.4;			   //半球透明度矫正值*1.4
        MOV     DPTR,#m_BUF + 3
        MOVX    A,@DPTR
        MOV     ?V0 + 0,A
        CLR     A
        MOV     ?V0 + 1,A
        MOV     ?V0 + 2,A
        MOV     ?V0 + 3,A
        MOV     A,#0x8
        MOV     R0,#?V0 + 0
        LCALL   ?L_SHL
        MOV     DPTR,#m_BUF + 2
        MOVX    A,@DPTR
        MOV     ?V0 + 4,A
        CLR     A
        MOV     ?V0 + 5,A
        MOV     ?V0 + 6,A
        MOV     ?V0 + 7,A
        MOV     R0,#?V0 + 0
        MOV     R1,#?V0 + 4
        LCALL   ?L_IOR
        MOV     A,#0x8
        MOV     R0,#?V0 + 0
        LCALL   ?L_SHL
        MOV     DPTR,#m_BUF + 1
        MOVX    A,@DPTR
        MOV     ?V0 + 4,A
        MOV     R0,#?V0 + 0
        MOV     R1,#?V0 + 4
        LCALL   ?L_IOR
        MOV     A,#0x8
        MOV     R0,#?V0 + 0
        LCALL   ?L_SHL
        MOV     DPTR,#m_BUF
        MOVX    A,@DPTR
        MOV     ?V0 + 4,A
        MOV     R0,#?V0 + 0
        MOV     R1,#?V0 + 4
        LCALL   ?L_IOR
        MOV     R0,#?V0 + 0
        LCALL   ?UL_TO_FLT
        MOV     DPTR,#__Constant_3fb33333
        MOV     R0,#?V0 + 4
        LCALL   ?L_MOV_X
        MOV     R0,#?V0 + 0
        MOV     R1,#?V0 + 4
        LCALL   ?FLT_MUL
//  297   m_lightlux = (uint32)temp;
        MOV     R0,#?V0 + 0
        LCALL   ?FLT_TO_UL
        MOV     DPTR,#m_lightlux
        MOV     R0,#?V0 + 0
        LCALL   ?L_MOV_TO_X
//  298   return (uint32)temp;
        MOV     R2,?V0 + 0
        MOV     R3,?V0 + 1
        MOV     R4,?V0 + 2
        MOV     R5,?V0 + 3
        MOV     R7,#0x8
        LJMP    ?BANKED_LEAVE_XDATA
        CFI EndBlock cfiBlock34
//  299 } 

        RSEG BANKED_CODE:CODE:NOROOT(0)
?Subroutine9:
        CFI Block cfiCond35 Using cfiCommon0
        CFI NoFunction
        CFI Conditional ??CrossCallReturnLabel_14, ??CrossCallReturnLabel_2
        CFI R6 load(1, XDATA, add(CFA_XSP16, literal(-13)))
        CFI VB load(1, XDATA, add(CFA_XSP16, literal(-12)))
        CFI V0 load(1, XDATA, add(CFA_XSP16, literal(-11)))
        CFI V1 load(1, XDATA, add(CFA_XSP16, literal(-10)))
        CFI V2 load(1, XDATA, add(CFA_XSP16, literal(-9)))
        CFI V3 load(1, XDATA, add(CFA_XSP16, literal(-8)))
        CFI V4 load(1, XDATA, add(CFA_XSP16, literal(-7)))
        CFI R7 load(1, XDATA, add(CFA_XSP16, literal(-6)))
        CFI ?RET_LOW load(1, XDATA, add(CFA_XSP16, literal(-5)))
        CFI ?RET_HIGH load(1, XDATA, add(CFA_XSP16, literal(-4)))
        CFI ?BRET_EXT load(1, XDATA, add(CFA_XSP16, literal(-3)))
        CFI DPL0 load(1, XDATA, add(CFA_XSP16, literal(-2)))
        CFI DPH0 load(1, XDATA, add(CFA_XSP16, literal(-1)))
        CFI CFA_SP SP+0
        CFI CFA_XSP16 add(XSP16, 13)
        CFI Block cfiCond36 Using cfiCommon0
        CFI (cfiCond36) NoFunction
        CFI (cfiCond36) Conditional ??CrossCallReturnLabel_14, ??CrossCallReturnLabel_3
        CFI (cfiCond36) R6 load(1, XDATA, add(CFA_XSP16, literal(-13)))
        CFI (cfiCond36) VB load(1, XDATA, add(CFA_XSP16, literal(-12)))
        CFI (cfiCond36) V0 load(1, XDATA, add(CFA_XSP16, literal(-11)))
        CFI (cfiCond36) V1 load(1, XDATA, add(CFA_XSP16, literal(-10)))
        CFI (cfiCond36) V2 load(1, XDATA, add(CFA_XSP16, literal(-9)))
        CFI (cfiCond36) V3 load(1, XDATA, add(CFA_XSP16, literal(-8)))
        CFI (cfiCond36) V4 load(1, XDATA, add(CFA_XSP16, literal(-7)))
        CFI (cfiCond36) R7 load(1, XDATA, add(CFA_XSP16, literal(-6)))
        CFI (cfiCond36) ?RET_LOW load(1, XDATA, add(CFA_XSP16, literal(-5)))
        CFI (cfiCond36) ?RET_HIGH load(1, XDATA, add(CFA_XSP16, literal(-4)))
        CFI (cfiCond36) ?BRET_EXT load(1, XDATA, add(CFA_XSP16, literal(-3)))
        CFI (cfiCond36) DPL0 load(1, XDATA, add(CFA_XSP16, literal(-2)))
        CFI (cfiCond36) DPH0 load(1, XDATA, add(CFA_XSP16, literal(-1)))
        CFI (cfiCond36) CFA_SP SP+0
        CFI (cfiCond36) CFA_XSP16 add(XSP16, 13)
        CFI Block cfiCond37 Using cfiCommon0
        CFI (cfiCond37) NoFunction
        CFI (cfiCond37) Conditional ??CrossCallReturnLabel_15
        CFI (cfiCond37) R6 load(1, XDATA, add(CFA_XSP16, literal(-16)))
        CFI (cfiCond37) VB load(1, XDATA, add(CFA_XSP16, literal(-15)))
        CFI (cfiCond37) V0 load(1, XDATA, add(CFA_XSP16, literal(-14)))
        CFI (cfiCond37) V1 load(1, XDATA, add(CFA_XSP16, literal(-13)))
        CFI (cfiCond37) V2 load(1, XDATA, add(CFA_XSP16, literal(-12)))
        CFI (cfiCond37) V3 load(1, XDATA, add(CFA_XSP16, literal(-11)))
        CFI (cfiCond37) V4 load(1, XDATA, add(CFA_XSP16, literal(-10)))
        CFI (cfiCond37) V5 load(1, XDATA, add(CFA_XSP16, literal(-9)))
        CFI (cfiCond37) V6 load(1, XDATA, add(CFA_XSP16, literal(-8)))
        CFI (cfiCond37) V7 load(1, XDATA, add(CFA_XSP16, literal(-7)))
        CFI (cfiCond37) R7 load(1, XDATA, add(CFA_XSP16, literal(-6)))
        CFI (cfiCond37) ?RET_LOW load(1, XDATA, add(CFA_XSP16, literal(-5)))
        CFI (cfiCond37) ?RET_HIGH load(1, XDATA, add(CFA_XSP16, literal(-4)))
        CFI (cfiCond37) ?BRET_EXT load(1, XDATA, add(CFA_XSP16, literal(-3)))
        CFI (cfiCond37) DPL0 load(1, XDATA, add(CFA_XSP16, literal(-2)))
        CFI (cfiCond37) DPH0 load(1, XDATA, add(CFA_XSP16, literal(-1)))
        CFI (cfiCond37) CFA_SP SP+0
        CFI (cfiCond37) CFA_XSP16 add(XSP16, 16)
        CFI Block cfiPicker38 Using cfiCommon1
        CFI (cfiPicker38) NoFunction
        CFI (cfiPicker38) Picker
        LCALL   ??B_LUX30_Start?relay
        ; Setup parameters for call to function B_LUX30_SendByte
        ; Setup parameters for call to function B_LUX30_SendByte
        ; Setup parameters for call to function B_LUX30_SendByte
        MOV     R1,#-0x6c
        LCALL   ??B_LUX30_SendByte?relay
        RET
        CFI EndBlock cfiCond35
        CFI EndBlock cfiCond36
        CFI EndBlock cfiCond37
        CFI EndBlock cfiPicker38

        RSEG BANKED_CODE:CODE:NOROOT(0)
?Subroutine3:
        CFI Block cfiCond39 Using cfiCommon0
        CFI NoFunction
        CFI Conditional ??CrossCallReturnLabel_0
        CFI R6 load(1, XDATA, add(CFA_XSP16, literal(-13)))
        CFI VB load(1, XDATA, add(CFA_XSP16, literal(-12)))
        CFI V0 load(1, XDATA, add(CFA_XSP16, literal(-11)))
        CFI V1 load(1, XDATA, add(CFA_XSP16, literal(-10)))
        CFI V2 load(1, XDATA, add(CFA_XSP16, literal(-9)))
        CFI V3 load(1, XDATA, add(CFA_XSP16, literal(-8)))
        CFI V4 load(1, XDATA, add(CFA_XSP16, literal(-7)))
        CFI R7 load(1, XDATA, add(CFA_XSP16, literal(-6)))
        CFI ?RET_LOW load(1, XDATA, add(CFA_XSP16, literal(-5)))
        CFI ?RET_HIGH load(1, XDATA, add(CFA_XSP16, literal(-4)))
        CFI ?BRET_EXT load(1, XDATA, add(CFA_XSP16, literal(-3)))
        CFI DPL0 load(1, XDATA, add(CFA_XSP16, literal(-2)))
        CFI DPH0 load(1, XDATA, add(CFA_XSP16, literal(-1)))
        CFI CFA_SP SP+0
        CFI CFA_XSP16 add(XSP16, 13)
        CFI Block cfiCond40 Using cfiCommon0
        CFI (cfiCond40) NoFunction
        CFI (cfiCond40) Conditional ??CrossCallReturnLabel_1
        CFI (cfiCond40) R6 load(1, XDATA, add(CFA_XSP16, literal(-16)))
        CFI (cfiCond40) VB load(1, XDATA, add(CFA_XSP16, literal(-15)))
        CFI (cfiCond40) V0 load(1, XDATA, add(CFA_XSP16, literal(-14)))
        CFI (cfiCond40) V1 load(1, XDATA, add(CFA_XSP16, literal(-13)))
        CFI (cfiCond40) V2 load(1, XDATA, add(CFA_XSP16, literal(-12)))
        CFI (cfiCond40) V3 load(1, XDATA, add(CFA_XSP16, literal(-11)))
        CFI (cfiCond40) V4 load(1, XDATA, add(CFA_XSP16, literal(-10)))
        CFI (cfiCond40) V5 load(1, XDATA, add(CFA_XSP16, literal(-9)))
        CFI (cfiCond40) V6 load(1, XDATA, add(CFA_XSP16, literal(-8)))
        CFI (cfiCond40) V7 load(1, XDATA, add(CFA_XSP16, literal(-7)))
        CFI (cfiCond40) R7 load(1, XDATA, add(CFA_XSP16, literal(-6)))
        CFI (cfiCond40) ?RET_LOW load(1, XDATA, add(CFA_XSP16, literal(-5)))
        CFI (cfiCond40) ?RET_HIGH load(1, XDATA, add(CFA_XSP16, literal(-4)))
        CFI (cfiCond40) ?BRET_EXT load(1, XDATA, add(CFA_XSP16, literal(-3)))
        CFI (cfiCond40) DPL0 load(1, XDATA, add(CFA_XSP16, literal(-2)))
        CFI (cfiCond40) DPH0 load(1, XDATA, add(CFA_XSP16, literal(-1)))
        CFI (cfiCond40) CFA_SP SP+0
        CFI (cfiCond40) CFA_XSP16 add(XSP16, 16)
        CFI Block cfiPicker41 Using cfiCommon1
        CFI (cfiPicker41) NoFunction
        CFI (cfiPicker41) Picker
        LCALL   ??B_LUX30_SendByte?relay
        ; Setup parameters for call to function B_LUX30_Start
        ; Setup parameters for call to function B_LUX30_Start
        LCALL   ??B_LUX30_Start?relay
        ; Setup parameters for call to function B_LUX30_SendByte
        ; Setup parameters for call to function B_LUX30_SendByte
        MOV     R1,#-0x6b
        LCALL   ??B_LUX30_SendByte?relay
        ; Setup parameters for call to function B_LUX30_delay_nms
        ; Setup parameters for call to function B_LUX30_delay_nms
        MOV     R2,#0x1
        MOV     R3,#0x0
        LCALL   ??B_LUX30_delay_nms?relay
        RET
        CFI EndBlock cfiCond39
        CFI EndBlock cfiCond40
        CFI EndBlock cfiPicker41

        RSEG XDATA_ROM_C:CONST:REORDER:NOROOT(0)
        DATA32
__Constant_3fb33333:
        DD 3FB33333H

        RSEG BANK_RELAYS:CODE:REORDER:NOROOT(0)
??B_LUX30_delay_nms?relay:
        LCALL   ?BDISPATCH
        DATA
        DC24    B_LUX30_delay_nms

        RSEG BANK_RELAYS:CODE:REORDER:NOROOT(0)
??B_LUX30_Delay5us?relay:
        LCALL   ?BDISPATCH
        DATA
        DC24    B_LUX30_Delay5us

        RSEG BANK_RELAYS:CODE:REORDER:NOROOT(0)
??B_LUX30_Delay5ms?relay:
        LCALL   ?BDISPATCH
        DATA
        DC24    B_LUX30_Delay5ms

        RSEG BANK_RELAYS:CODE:REORDER:NOROOT(0)
??B_LUX30_Start?relay:
        LCALL   ?BDISPATCH
        DATA
        DC24    B_LUX30_Start

        RSEG BANK_RELAYS:CODE:REORDER:NOROOT(0)
??B_LUX30_Stop?relay:
        LCALL   ?BDISPATCH
        DATA
        DC24    B_LUX30_Stop

        RSEG BANK_RELAYS:CODE:REORDER:NOROOT(0)
??B_LUX30_SendACK?relay:
        LCALL   ?BDISPATCH
        DATA
        DC24    B_LUX30_SendACK

        RSEG BANK_RELAYS:CODE:REORDER:NOROOT(0)
??B_LUX30_RecvACK?relay:
        LCALL   ?BDISPATCH
        DATA
        DC24    B_LUX30_RecvACK

        RSEG BANK_RELAYS:CODE:REORDER:NOROOT(0)
??B_LUX30_SendByte?relay:
        LCALL   ?BDISPATCH
        DATA
        DC24    B_LUX30_SendByte

        RSEG BANK_RELAYS:CODE:REORDER:NOROOT(0)
??B_LUX30_RecvByte?relay:
        LCALL   ?BDISPATCH
        DATA
        DC24    B_LUX30_RecvByte

        RSEG BANK_RELAYS:CODE:REORDER:NOROOT(0)
??B_LUX30_Multiple_Write?relay:
        LCALL   ?BDISPATCH
        DATA
        DC24    B_LUX30_Multiple_Write

        RSEG BANK_RELAYS:CODE:REORDER:NOROOT(0)
??B_LUX30_Multiple_read?relay:
        LCALL   ?BDISPATCH
        DATA
        DC24    B_LUX30_Multiple_read

        RSEG BANK_RELAYS:CODE:REORDER:NOROOT(0)
??B_LUX30_Init?relay:
        LCALL   ?BDISPATCH
        DATA
        DC24    B_LUX30_Init

        RSEG BANK_RELAYS:CODE:REORDER:NOROOT(0)
??B_LUX30_GetLux?relay:
        LCALL   ?BDISPATCH
        DATA
        DC24    B_LUX30_GetLux

        END
//  300 
// 
// 613 bytes in segment BANKED_CODE
//  78 bytes in segment BANK_RELAYS
//   3 bytes in segment SFR_AN
//   4 bytes in segment XDATA_ROM_C
// 133 bytes in segment XDATA_Z
// 
// 691 bytes of CODE  memory
//   0 bytes of CONST memory (+ 4 bytes shared)
//   0 bytes of DATA  memory (+ 3 bytes shared)
// 133 bytes of XDATA memory
//
//Errors: none
//Warnings: none
